	.file	"main.cpp"
	.section	.rodata
	.type	_ZStL19piecewise_construct, @object
	.size	_ZStL19piecewise_construct, 1
_ZStL19piecewise_construct:
	.zero	1
	.section	.text._ZnwmPv,"axG",@progbits,_ZnwmPv,comdat
	.weak	_ZnwmPv
	.type	_ZnwmPv, @function
_ZnwmPv:
.LFB436:
	.cfi_startproc
	pushq	%rbp
	.cfi_def_cfa_offset 16
	.cfi_offset 6, -16
	movq	%rsp, %rbp
	.cfi_def_cfa_register 6
	movq	%rdi, -8(%rbp)
	movq	%rsi, -16(%rbp)
	movq	-16(%rbp), %rax
	popq	%rbp
	.cfi_def_cfa 7, 8
	ret
	.cfi_endproc
.LFE436:
	.size	_ZnwmPv, .-_ZnwmPv
	.section	.text._ZdlPvS_,"axG",@progbits,_ZdlPvS_,comdat
	.weak	_ZdlPvS_
	.type	_ZdlPvS_, @function
_ZdlPvS_:
.LFB438:
	.cfi_startproc
	pushq	%rbp
	.cfi_def_cfa_offset 16
	.cfi_offset 6, -16
	movq	%rsp, %rbp
	.cfi_def_cfa_register 6
	movq	%rdi, -8(%rbp)
	movq	%rsi, -16(%rbp)
	nop
	popq	%rbp
	.cfi_def_cfa 7, 8
	ret
	.cfi_endproc
.LFE438:
	.size	_ZdlPvS_, .-_ZdlPvS_
	.section	.text._ZStorSt13_Ios_OpenmodeS_,"axG",@progbits,_ZStorSt13_Ios_OpenmodeS_,comdat
	.weak	_ZStorSt13_Ios_OpenmodeS_
	.type	_ZStorSt13_Ios_OpenmodeS_, @function
_ZStorSt13_Ios_OpenmodeS_:
.LFB1028:
	.cfi_startproc
	pushq	%rbp
	.cfi_def_cfa_offset 16
	.cfi_offset 6, -16
	movq	%rsp, %rbp
	.cfi_def_cfa_register 6
	movl	%edi, -4(%rbp)
	movl	%esi, -8(%rbp)
	movl	-4(%rbp), %eax
	orl	-8(%rbp), %eax
	popq	%rbp
	.cfi_def_cfa 7, 8
	ret
	.cfi_endproc
.LFE1028:
	.size	_ZStorSt13_Ios_OpenmodeS_, .-_ZStorSt13_Ios_OpenmodeS_
	.local	_ZStL8__ioinit
	.comm	_ZStL8__ioinit,1,1
	.globl	entry
	.bss
	.align 16
	.type	entry, @object
	.size	entry, 24
entry:
	.zero	24
	.section	.rodata
.LC0:
	.string	"\n\t"
	.text
	.globl	_Z10print_findN9__gnu_cxx17__normal_iteratorIP4infoSt6vectorIS1_SaIS1_EEEE
	.type	_Z10print_findN9__gnu_cxx17__normal_iteratorIP4infoSt6vectorIS1_SaIS1_EEEE, @function
_Z10print_findN9__gnu_cxx17__normal_iteratorIP4infoSt6vectorIS1_SaIS1_EEEE:
.LFB6803:
	.cfi_startproc
	pushq	%rbp
	.cfi_def_cfa_offset 16
	.cfi_offset 6, -16
	movq	%rsp, %rbp
	.cfi_def_cfa_register 6
	pushq	%r12
	pushq	%rbx
	subq	$16, %rsp
	.cfi_offset 12, -24
	.cfi_offset 3, -32
	movq	%rdi, -32(%rbp)
	leaq	-32(%rbp), %rax
	movq	%rax, %rdi
	call	_ZNK9__gnu_cxx17__normal_iteratorIP4infoSt6vectorIS1_SaIS1_EEEptEv
	leaq	32(%rax), %r12
	leaq	-32(%rbp), %rax
	movq	%rax, %rdi
	call	_ZNK9__gnu_cxx17__normal_iteratorIP4infoSt6vectorIS1_SaIS1_EEEptEv
	movl	64(%rax), %ebx
	leaq	-32(%rbp), %rax
	movq	%rax, %rdi
	call	_ZNK9__gnu_cxx17__normal_iteratorIP4infoSt6vectorIS1_SaIS1_EEEptEv
	movq	%rax, %rsi
	movl	$_ZSt4cout, %edi
	call	_ZStlsIcSt11char_traitsIcESaIcEERSt13basic_ostreamIT_T0_ES7_RKNSt7__cxx1112basic_stringIS4_S5_T1_EE
	movl	$.LC0, %esi
	movq	%rax, %rdi
	call	_ZStlsISt11char_traitsIcEERSt13basic_ostreamIcT_ES5_PKc
	movl	%ebx, %esi
	movq	%rax, %rdi
	call	_ZNSolsEi
	movl	$.LC0, %esi
	movq	%rax, %rdi
	call	_ZStlsISt11char_traitsIcEERSt13basic_ostreamIcT_ES5_PKc
	movq	%r12, %rsi
	movq	%rax, %rdi
	call	_ZStlsIcSt11char_traitsIcESaIcEERSt13basic_ostreamIT_T0_ES7_RKNSt7__cxx1112basic_stringIS4_S5_T1_EE
	nop
	addq	$16, %rsp
	popq	%rbx
	popq	%r12
	popq	%rbp
	.cfi_def_cfa 7, 8
	ret
	.cfi_endproc
.LFE6803:
	.size	_Z10print_findN9__gnu_cxx17__normal_iteratorIP4infoSt6vectorIS1_SaIS1_EEEE, .-_Z10print_findN9__gnu_cxx17__normal_iteratorIP4infoSt6vectorIS1_SaIS1_EEEE
	.section	.rodata
.LC1:
	.string	" entries: \n"
	.text
	.globl	_Z9print_all4info
	.type	_Z9print_all4info, @function
_Z9print_all4info:
.LFB6804:
	.cfi_startproc
	pushq	%rbp
	.cfi_def_cfa_offset 16
	.cfi_offset 6, -16
	movq	%rsp, %rbp
	.cfi_def_cfa_register 6
	pushq	%r13
	pushq	%r12
	pushq	%rbx
	subq	$24, %rsp
	.cfi_offset 13, -24
	.cfi_offset 12, -32
	.cfi_offset 3, -40
	movq	%rdi, -40(%rbp)
	movq	-40(%rbp), %rax
	leaq	32(%rax), %r13
	movq	-40(%rbp), %rax
	movl	64(%rax), %ebx
	movq	-40(%rbp), %r12
	movl	$entry, %edi
	call	_ZNKSt6vectorI4infoSaIS0_EE4sizeEv
	movq	%rax, %rsi
	movl	$_ZSt4cout, %edi
	call	_ZNSolsEm
	movl	$.LC1, %esi
	movq	%rax, %rdi
	call	_ZStlsISt11char_traitsIcEERSt13basic_ostreamIcT_ES5_PKc
	movq	%r12, %rsi
	movq	%rax, %rdi
	call	_ZStlsIcSt11char_traitsIcESaIcEERSt13basic_ostreamIT_T0_ES7_RKNSt7__cxx1112basic_stringIS4_S5_T1_EE
	movl	$.LC0, %esi
	movq	%rax, %rdi
	call	_ZStlsISt11char_traitsIcEERSt13basic_ostreamIcT_ES5_PKc
	movl	%ebx, %esi
	movq	%rax, %rdi
	call	_ZNSolsEi
	movl	$.LC0, %esi
	movq	%rax, %rdi
	call	_ZStlsISt11char_traitsIcEERSt13basic_ostreamIcT_ES5_PKc
	movq	%r13, %rsi
	movq	%rax, %rdi
	call	_ZStlsIcSt11char_traitsIcESaIcEERSt13basic_ostreamIT_T0_ES7_RKNSt7__cxx1112basic_stringIS4_S5_T1_EE
	movl	$_ZSt4endlIcSt11char_traitsIcEERSt13basic_ostreamIT_T0_ES6_, %esi
	movq	%rax, %rdi
	call	_ZNSolsEPFRSoS_E
	nop
	addq	$24, %rsp
	popq	%rbx
	popq	%r12
	popq	%r13
	popq	%rbp
	.cfi_def_cfa 7, 8
	ret
	.cfi_endproc
.LFE6804:
	.size	_Z9print_all4info, .-_Z9print_all4info
	.align 2
	.type	_ZZ5enterNSt7__cxx1112basic_stringIcSt11char_traitsIcESaIcEEEENKUl4infoE_clES5_, @function
_ZZ5enterNSt7__cxx1112basic_stringIcSt11char_traitsIcESaIcEEEENKUl4infoE_clES5_:
.LFB6806:
	.cfi_startproc
	pushq	%rbp
	.cfi_def_cfa_offset 16
	.cfi_offset 6, -16
	movq	%rsp, %rbp
	.cfi_def_cfa_register 6
	subq	$32, %rsp
	movq	%rdi, -24(%rbp)
	movq	%rsi, -32(%rbp)
	movq	%fs:40, %rax
	movq	%rax, -8(%rbp)
	xorl	%eax, %eax
	movq	-24(%rbp), %rdx
	movq	-32(%rbp), %rax
	movq	%rdx, %rsi
	movq	%rax, %rdi
	call	_ZNKSt7__cxx1112basic_stringIcSt11char_traitsIcESaIcEE7compareERKS4_
	testl	%eax, %eax
	sete	%al
	movq	-8(%rbp), %rcx
	xorq	%fs:40, %rcx
	je	.L10
	call	__stack_chk_fail
.L10:
	leave
	.cfi_def_cfa 7, 8
	ret
	.cfi_endproc
.LFE6806:
	.size	_ZZ5enterNSt7__cxx1112basic_stringIcSt11char_traitsIcESaIcEEEENKUl4infoE_clES5_, .-_ZZ5enterNSt7__cxx1112basic_stringIcSt11char_traitsIcESaIcEEEENKUl4infoE_clES5_
	.align 2
	.type	_ZZ5enterNSt7__cxx1112basic_stringIcSt11char_traitsIcESaIcEEEENUl4infoE_D2Ev, @function
_ZZ5enterNSt7__cxx1112basic_stringIcSt11char_traitsIcESaIcEEEENUl4infoE_D2Ev:
.LFB6808:
	.cfi_startproc
	pushq	%rbp
	.cfi_def_cfa_offset 16
	.cfi_offset 6, -16
	movq	%rsp, %rbp
	.cfi_def_cfa_register 6
	subq	$16, %rsp
	movq	%rdi, -8(%rbp)
	movq	-8(%rbp), %rax
	movq	%rax, %rdi
	call	_ZNSt7__cxx1112basic_stringIcSt11char_traitsIcESaIcEED1Ev
	nop
	leave
	.cfi_def_cfa 7, 8
	ret
	.cfi_endproc
.LFE6808:
	.size	_ZZ5enterNSt7__cxx1112basic_stringIcSt11char_traitsIcESaIcEEEENUl4infoE_D2Ev, .-_ZZ5enterNSt7__cxx1112basic_stringIcSt11char_traitsIcESaIcEEEENUl4infoE_D2Ev
	.set	_ZZ5enterNSt7__cxx1112basic_stringIcSt11char_traitsIcESaIcEEEENUl4infoE_D1Ev,_ZZ5enterNSt7__cxx1112basic_stringIcSt11char_traitsIcESaIcEEEENUl4infoE_D2Ev
	.section	.text._ZN4infoC2Ev,"axG",@progbits,_ZN4infoC5Ev,comdat
	.align 2
	.weak	_ZN4infoC2Ev
	.type	_ZN4infoC2Ev, @function
_ZN4infoC2Ev:
.LFB6814:
	.cfi_startproc
	pushq	%rbp
	.cfi_def_cfa_offset 16
	.cfi_offset 6, -16
	movq	%rsp, %rbp
	.cfi_def_cfa_register 6
	subq	$16, %rsp
	movq	%rdi, -8(%rbp)
	movq	-8(%rbp), %rax
	movq	%rax, %rdi
	call	_ZNSt7__cxx1112basic_stringIcSt11char_traitsIcESaIcEEC1Ev
	movq	-8(%rbp), %rax
	addq	$32, %rax
	movq	%rax, %rdi
	call	_ZNSt7__cxx1112basic_stringIcSt11char_traitsIcESaIcEEC1Ev
	nop
	leave
	.cfi_def_cfa 7, 8
	ret
	.cfi_endproc
.LFE6814:
	.size	_ZN4infoC2Ev, .-_ZN4infoC2Ev
	.weak	_ZN4infoC1Ev
	.set	_ZN4infoC1Ev,_ZN4infoC2Ev
	.section	.text._ZN4infoD2Ev,"axG",@progbits,_ZN4infoD5Ev,comdat
	.align 2
	.weak	_ZN4infoD2Ev
	.type	_ZN4infoD2Ev, @function
_ZN4infoD2Ev:
.LFB6817:
	.cfi_startproc
	pushq	%rbp
	.cfi_def_cfa_offset 16
	.cfi_offset 6, -16
	movq	%rsp, %rbp
	.cfi_def_cfa_register 6
	subq	$16, %rsp
	movq	%rdi, -8(%rbp)
	movq	-8(%rbp), %rax
	addq	$32, %rax
	movq	%rax, %rdi
	call	_ZNSt7__cxx1112basic_stringIcSt11char_traitsIcESaIcEED1Ev
	movq	-8(%rbp), %rax
	movq	%rax, %rdi
	call	_ZNSt7__cxx1112basic_stringIcSt11char_traitsIcESaIcEED1Ev
	nop
	leave
	.cfi_def_cfa 7, 8
	ret
	.cfi_endproc
.LFE6817:
	.size	_ZN4infoD2Ev, .-_ZN4infoD2Ev
	.weak	_ZN4infoD1Ev
	.set	_ZN4infoD1Ev,_ZN4infoD2Ev
	.section	.rodata
.LC2:
	.string	"Quantity?\t:"
.LC3:
	.string	"Notes?\t:"
.LC4:
	.string	"No entry found. Updating\n"
	.text
	.globl	_Z5enterNSt7__cxx1112basic_stringIcSt11char_traitsIcESaIcEEE
	.type	_Z5enterNSt7__cxx1112basic_stringIcSt11char_traitsIcESaIcEEE, @function
_Z5enterNSt7__cxx1112basic_stringIcSt11char_traitsIcESaIcEEE:
.LFB6805:
	.cfi_startproc
	.cfi_personality 0x3,__gxx_personality_v0
	.cfi_lsda 0x3,.LLSDA6805
	pushq	%rbp
	.cfi_def_cfa_offset 16
	.cfi_offset 6, -16
	movq	%rsp, %rbp
	.cfi_def_cfa_register 6
	pushq	%rbx
	subq	$184, %rsp
	.cfi_offset 3, -24
	movq	%rdi, -184(%rbp)
	movq	%fs:40, %rax
	movq	%rax, -24(%rbp)
	xorl	%eax, %eax
	leaq	-128(%rbp), %rax
	movq	%rax, %rdi
	call	_ZNSt7__cxx1112basic_stringIcSt11char_traitsIcESaIcEEC1Ev
	movl	$.LC2, %esi
	movl	$_ZSt4cout, %edi
.LEHB0:
	call	_ZStlsISt11char_traitsIcEERSt13basic_ostreamIcT_ES5_PKc
	leaq	-164(%rbp), %rax
	movq	%rax, %rsi
	movl	$_ZSt3cin, %edi
	call	_ZNSirsERi
	movl	$.LC3, %esi
	movl	$_ZSt4cout, %edi
	call	_ZStlsISt11char_traitsIcEERSt13basic_ostreamIcT_ES5_PKc
	movl	$10, %edx
	movl	$100, %esi
	movl	$_ZSt3cin, %edi
	call	_ZNSi6ignoreEli
	leaq	-128(%rbp), %rax
	movq	%rax, %rsi
	movl	$_ZSt3cin, %edi
	call	_ZSt7getlineIcSt11char_traitsIcESaIcEERSt13basic_istreamIT_T0_ES7_RNSt7__cxx1112basic_stringIS4_S5_T1_EE
	movq	-184(%rbp), %rdx
	leaq	-96(%rbp), %rax
	movq	%rdx, %rsi
	movq	%rax, %rdi
	call	_ZNSt7__cxx1112basic_stringIcSt11char_traitsIcESaIcEEC1ERKS4_
.LEHE0:
	movl	$entry, %edi
	call	_ZNSt6vectorI4infoSaIS0_EE3endEv
	movq	%rax, %rbx
	movl	$entry, %edi
	call	_ZNSt6vectorI4infoSaIS0_EE5beginEv
	movq	%rax, %rcx
	leaq	-96(%rbp), %rax
	movq	%rax, %rdx
	movq	%rbx, %rsi
	movq	%rcx, %rdi
.LEHB1:
	call	_ZSt7find_ifIN9__gnu_cxx17__normal_iteratorIP4infoSt6vectorIS2_SaIS2_EEEEZ5enterNSt7__cxx1112basic_stringIcSt11char_traitsIcESaIcEEEEUlS2_E_ET_SF_SF_T0_
.LEHE1:
	movq	%rax, -160(%rbp)
	leaq	-96(%rbp), %rax
	movq	%rax, %rdi
	call	_ZZ5enterNSt7__cxx1112basic_stringIcSt11char_traitsIcESaIcEEEENUl4infoE_D1Ev
	movl	$entry, %edi
	call	_ZNSt6vectorI4infoSaIS0_EE3endEv
	movq	%rax, -144(%rbp)
	leaq	-144(%rbp), %rdx
	leaq	-160(%rbp), %rax
	movq	%rdx, %rsi
	movq	%rax, %rdi
	call	_ZN9__gnu_cxxeqIP4infoSt6vectorIS1_SaIS1_EEEEbRKNS_17__normal_iteratorIT_T0_EESB_
	testb	%al, %al
	je	.L15
	leaq	-96(%rbp), %rax
	movq	%rax, %rdi
	call	_ZN4infoC1Ev
	movl	$.LC4, %esi
	movl	$_ZSt4cout, %edi
.LEHB2:
	call	_ZStlsISt11char_traitsIcEERSt13basic_ostreamIcT_ES5_PKc
	movq	-184(%rbp), %rdx
	leaq	-96(%rbp), %rax
	movq	%rdx, %rsi
	movq	%rax, %rdi
	call	_ZNSt7__cxx1112basic_stringIcSt11char_traitsIcESaIcEEaSERKS4_
	movl	-164(%rbp), %eax
	movl	%eax, -32(%rbp)
	leaq	-128(%rbp), %rax
	leaq	-96(%rbp), %rdx
	addq	$32, %rdx
	movq	%rax, %rsi
	movq	%rdx, %rdi
	call	_ZNSt7__cxx1112basic_stringIcSt11char_traitsIcESaIcEEaSERKS4_
	leaq	-96(%rbp), %rax
	movq	%rax, %rsi
	movl	$entry, %edi
	call	_ZNSt6vectorI4infoSaIS0_EE9push_backERKS0_
.LEHE2:
	leaq	-96(%rbp), %rax
	movq	%rax, %rdi
	call	_ZN4infoD1Ev
	jmp	.L27
.L15:
	leaq	-160(%rbp), %rax
	movq	%rax, %rdi
	call	_ZNK9__gnu_cxx17__normal_iteratorIP4infoSt6vectorIS1_SaIS1_EEEptEv
	movq	%rax, %rdx
	movl	-164(%rbp), %eax
	movl	%eax, 64(%rdx)
.L27:
	nop
	leaq	-128(%rbp), %rax
	movq	%rax, %rdi
	call	_ZNSt7__cxx1112basic_stringIcSt11char_traitsIcESaIcEED1Ev
	nop
	movq	-24(%rbp), %rax
	xorq	%fs:40, %rax
	je	.L21
	jmp	.L26
.L23:
	movq	%rax, %rbx
	leaq	-96(%rbp), %rax
	movq	%rax, %rdi
	call	_ZZ5enterNSt7__cxx1112basic_stringIcSt11char_traitsIcESaIcEEEENUl4infoE_D1Ev
	jmp	.L19
.L24:
	movq	%rax, %rbx
	leaq	-96(%rbp), %rax
	movq	%rax, %rdi
	call	_ZN4infoD1Ev
	jmp	.L19
.L22:
	movq	%rax, %rbx
.L19:
	leaq	-128(%rbp), %rax
	movq	%rax, %rdi
	call	_ZNSt7__cxx1112basic_stringIcSt11char_traitsIcESaIcEED1Ev
	movq	%rbx, %rax
	movq	%rax, %rdi
.LEHB3:
	call	_Unwind_Resume
.LEHE3:
.L26:
	call	__stack_chk_fail
.L21:
	addq	$184, %rsp
	popq	%rbx
	popq	%rbp
	.cfi_def_cfa 7, 8
	ret
	.cfi_endproc
.LFE6805:
	.globl	__gxx_personality_v0
	.section	.gcc_except_table,"a",@progbits
.LLSDA6805:
	.byte	0xff
	.byte	0xff
	.byte	0x1
	.uleb128 .LLSDACSE6805-.LLSDACSB6805
.LLSDACSB6805:
	.uleb128 .LEHB0-.LFB6805
	.uleb128 .LEHE0-.LEHB0
	.uleb128 .L22-.LFB6805
	.uleb128 0
	.uleb128 .LEHB1-.LFB6805
	.uleb128 .LEHE1-.LEHB1
	.uleb128 .L23-.LFB6805
	.uleb128 0
	.uleb128 .LEHB2-.LFB6805
	.uleb128 .LEHE2-.LEHB2
	.uleb128 .L24-.LFB6805
	.uleb128 0
	.uleb128 .LEHB3-.LFB6805
	.uleb128 .LEHE3-.LEHB3
	.uleb128 0
	.uleb128 0
.LLSDACSE6805:
	.text
	.size	_Z5enterNSt7__cxx1112basic_stringIcSt11char_traitsIcESaIcEEE, .-_Z5enterNSt7__cxx1112basic_stringIcSt11char_traitsIcESaIcEEE
	.globl	_Z6readInNSt7__cxx1112basic_stringIcSt11char_traitsIcESaIcEEE
	.type	_Z6readInNSt7__cxx1112basic_stringIcSt11char_traitsIcESaIcEEE, @function
_Z6readInNSt7__cxx1112basic_stringIcSt11char_traitsIcESaIcEEE:
.LFB6819:
	.cfi_startproc
	.cfi_personality 0x3,__gxx_personality_v0
	.cfi_lsda 0x3,.LLSDA6819
	pushq	%rbp
	.cfi_def_cfa_offset 16
	.cfi_offset 6, -16
	movq	%rsp, %rbp
	.cfi_def_cfa_register 6
	pushq	%rbx
	subq	$632, %rsp
	.cfi_offset 3, -24
	movq	%rdi, -632(%rbp)
	movq	%fs:40, %rax
	movq	%rax, -24(%rbp)
	xorl	%eax, %eax
	leaq	-624(%rbp), %rax
	movq	%rax, %rdi
	call	_ZN4infoC1Ev
	leaq	-544(%rbp), %rax
	movq	%rax, %rdi
.LEHB4:
	call	_ZNSt14basic_ifstreamIcSt11char_traitsIcEEC1Ev
.LEHE4:
	movq	-632(%rbp), %rcx
	leaq	-544(%rbp), %rax
	movl	$8, %edx
	movq	%rcx, %rsi
	movq	%rax, %rdi
.LEHB5:
	call	_ZNSt14basic_ifstreamIcSt11char_traitsIcEE4openERKNSt7__cxx1112basic_stringIcS1_SaIcEEESt13_Ios_Openmode
	leaq	-624(%rbp), %rdx
	leaq	-544(%rbp), %rax
	movq	%rdx, %rsi
	movq	%rax, %rdi
	call	_ZStrsIcSt11char_traitsIcESaIcEERSt13basic_istreamIT_T0_ES7_RNSt7__cxx1112basic_stringIS4_S5_T1_EE
	movq	%rax, %rdx
	leaq	-624(%rbp), %rax
	addq	$64, %rax
	movq	%rax, %rsi
	movq	%rdx, %rdi
	call	_ZNSirsERi
.L30:
	leaq	-624(%rbp), %rax
	leaq	32(%rax), %rdx
	leaq	-544(%rbp), %rax
	movq	%rdx, %rsi
	movq	%rax, %rdi
	call	_ZSt7getlineIcSt11char_traitsIcESaIcEERSt13basic_istreamIT_T0_ES7_RNSt7__cxx1112basic_stringIS4_S5_T1_EE
	leaq	-624(%rbp), %rax
	movq	%rax, %rsi
	movl	$entry, %edi
	call	_ZNSt6vectorI4infoSaIS0_EE9push_backERKS0_
	leaq	-624(%rbp), %rdx
	leaq	-544(%rbp), %rax
	movq	%rdx, %rsi
	movq	%rax, %rdi
	call	_ZStrsIcSt11char_traitsIcESaIcEERSt13basic_istreamIT_T0_ES7_RNSt7__cxx1112basic_stringIS4_S5_T1_EE
	movq	%rax, %rdx
	leaq	-624(%rbp), %rax
	addq	$64, %rax
	movq	%rax, %rsi
	movq	%rdx, %rdi
	call	_ZNSirsERi
	leaq	-544(%rbp), %rax
	addq	$256, %rax
	movq	%rax, %rdi
	call	_ZNKSt9basic_iosIcSt11char_traitsIcEEcvbEv
	testb	%al, %al
	je	.L29
	jmp	.L30
.L29:
	leaq	-544(%rbp), %rax
	movq	%rax, %rdi
	call	_ZNSt14basic_ifstreamIcSt11char_traitsIcEE5closeEv
.LEHE5:
	leaq	-544(%rbp), %rax
	movq	%rax, %rdi
	call	_ZNSt14basic_ifstreamIcSt11char_traitsIcEED1Ev
	leaq	-624(%rbp), %rax
	movq	%rax, %rdi
	call	_ZN4infoD1Ev
	nop
	movq	-24(%rbp), %rax
	xorq	%fs:40, %rax
	je	.L33
	jmp	.L36
.L35:
	movq	%rax, %rbx
	leaq	-544(%rbp), %rax
	movq	%rax, %rdi
	call	_ZNSt14basic_ifstreamIcSt11char_traitsIcEED1Ev
	jmp	.L32
.L34:
	movq	%rax, %rbx
.L32:
	leaq	-624(%rbp), %rax
	movq	%rax, %rdi
	call	_ZN4infoD1Ev
	movq	%rbx, %rax
	movq	%rax, %rdi
.LEHB6:
	call	_Unwind_Resume
.LEHE6:
.L36:
	call	__stack_chk_fail
.L33:
	addq	$632, %rsp
	popq	%rbx
	popq	%rbp
	.cfi_def_cfa 7, 8
	ret
	.cfi_endproc
.LFE6819:
	.section	.gcc_except_table
.LLSDA6819:
	.byte	0xff
	.byte	0xff
	.byte	0x1
	.uleb128 .LLSDACSE6819-.LLSDACSB6819
.LLSDACSB6819:
	.uleb128 .LEHB4-.LFB6819
	.uleb128 .LEHE4-.LEHB4
	.uleb128 .L34-.LFB6819
	.uleb128 0
	.uleb128 .LEHB5-.LFB6819
	.uleb128 .LEHE5-.LEHB5
	.uleb128 .L35-.LFB6819
	.uleb128 0
	.uleb128 .LEHB6-.LFB6819
	.uleb128 .LEHE6-.LEHB6
	.uleb128 0
	.uleb128 0
.LLSDACSE6819:
	.text
	.size	_Z6readInNSt7__cxx1112basic_stringIcSt11char_traitsIcESaIcEEE, .-_Z6readInNSt7__cxx1112basic_stringIcSt11char_traitsIcESaIcEEE
	.section	.rodata
.LC5:
	.string	" "
	.text
	.globl	_Z5writeNSt7__cxx1112basic_stringIcSt11char_traitsIcESaIcEEE
	.type	_Z5writeNSt7__cxx1112basic_stringIcSt11char_traitsIcESaIcEEE, @function
_Z5writeNSt7__cxx1112basic_stringIcSt11char_traitsIcESaIcEEE:
.LFB6820:
	.cfi_startproc
	.cfi_personality 0x3,__gxx_personality_v0
	.cfi_lsda 0x3,.LLSDA6820
	pushq	%rbp
	.cfi_def_cfa_offset 16
	.cfi_offset 6, -16
	movq	%rsp, %rbp
	.cfi_def_cfa_register 6
	pushq	%r12
	pushq	%rbx
	subq	$560, %rsp
	.cfi_offset 12, -24
	.cfi_offset 3, -32
	movq	%rdi, -568(%rbp)
	movq	%fs:40, %rax
	movq	%rax, -24(%rbp)
	xorl	%eax, %eax
	leaq	-544(%rbp), %rax
	movq	%rax, %rdi
.LEHB7:
	call	_ZNSt14basic_ofstreamIcSt11char_traitsIcEEC1Ev
.LEHE7:
	movl	$32, %esi
	movl	$16, %edi
	call	_ZStorSt13_Ios_OpenmodeS_
	movl	%eax, %edx
	movq	-568(%rbp), %rcx
	leaq	-544(%rbp), %rax
	movq	%rcx, %rsi
	movq	%rax, %rdi
.LEHB8:
	call	_ZNSt14basic_ofstreamIcSt11char_traitsIcEE4openERKNSt7__cxx1112basic_stringIcS1_SaIcEEESt13_Ios_Openmode
	movl	$0, -548(%rbp)
.L39:
	movl	-548(%rbp), %eax
	movslq	%eax, %rbx
	movl	$entry, %edi
	call	_ZNKSt6vectorI4infoSaIS0_EE4sizeEv
	cmpq	%rax, %rbx
	setb	%al
	testb	%al, %al
	je	.L38
	movl	-548(%rbp), %eax
	cltq
	movq	%rax, %rsi
	movl	$entry, %edi
	call	_ZNSt6vectorI4infoSaIS0_EEixEm
	leaq	32(%rax), %r12
	movl	-548(%rbp), %eax
	cltq
	movq	%rax, %rsi
	movl	$entry, %edi
	call	_ZNSt6vectorI4infoSaIS0_EEixEm
	movl	64(%rax), %ebx
	movl	-548(%rbp), %eax
	cltq
	movq	%rax, %rsi
	movl	$entry, %edi
	call	_ZNSt6vectorI4infoSaIS0_EEixEm
	movq	%rax, %rdx
	leaq	-544(%rbp), %rax
	movq	%rdx, %rsi
	movq	%rax, %rdi
	call	_ZStlsIcSt11char_traitsIcESaIcEERSt13basic_ostreamIT_T0_ES7_RKNSt7__cxx1112basic_stringIS4_S5_T1_EE
	movl	$.LC5, %esi
	movq	%rax, %rdi
	call	_ZStlsISt11char_traitsIcEERSt13basic_ostreamIcT_ES5_PKc
	movl	%ebx, %esi
	movq	%rax, %rdi
	call	_ZNSolsEi
	movl	$.LC5, %esi
	movq	%rax, %rdi
	call	_ZStlsISt11char_traitsIcEERSt13basic_ostreamIcT_ES5_PKc
	movq	%r12, %rsi
	movq	%rax, %rdi
	call	_ZStlsIcSt11char_traitsIcESaIcEERSt13basic_ostreamIT_T0_ES7_RKNSt7__cxx1112basic_stringIS4_S5_T1_EE
	movl	$_ZSt4endlIcSt11char_traitsIcEERSt13basic_ostreamIT_T0_ES6_, %esi
	movq	%rax, %rdi
	call	_ZNSolsEPFRSoS_E
	addl	$1, -548(%rbp)
	jmp	.L39
.L38:
	leaq	-544(%rbp), %rax
	movq	%rax, %rdi
	call	_ZNSt14basic_ofstreamIcSt11char_traitsIcEE5closeEv
.LEHE8:
	leaq	-544(%rbp), %rax
	movq	%rax, %rdi
	call	_ZNSt14basic_ofstreamIcSt11char_traitsIcEED1Ev
	nop
	movq	-24(%rbp), %rax
	xorq	%fs:40, %rax
	je	.L41
	jmp	.L43
.L42:
	movq	%rax, %rbx
	leaq	-544(%rbp), %rax
	movq	%rax, %rdi
	call	_ZNSt14basic_ofstreamIcSt11char_traitsIcEED1Ev
	movq	%rbx, %rax
	movq	%rax, %rdi
.LEHB9:
	call	_Unwind_Resume
.LEHE9:
.L43:
	call	__stack_chk_fail
.L41:
	addq	$560, %rsp
	popq	%rbx
	popq	%r12
	popq	%rbp
	.cfi_def_cfa 7, 8
	ret
	.cfi_endproc
.LFE6820:
	.section	.gcc_except_table
.LLSDA6820:
	.byte	0xff
	.byte	0xff
	.byte	0x1
	.uleb128 .LLSDACSE6820-.LLSDACSB6820
.LLSDACSB6820:
	.uleb128 .LEHB7-.LFB6820
	.uleb128 .LEHE7-.LEHB7
	.uleb128 0
	.uleb128 0
	.uleb128 .LEHB8-.LFB6820
	.uleb128 .LEHE8-.LEHB8
	.uleb128 .L42-.LFB6820
	.uleb128 0
	.uleb128 .LEHB9-.LFB6820
	.uleb128 .LEHE9-.LEHB9
	.uleb128 0
	.uleb128 0
.LLSDACSE6820:
	.text
	.size	_Z5writeNSt7__cxx1112basic_stringIcSt11char_traitsIcESaIcEEE, .-_Z5writeNSt7__cxx1112basic_stringIcSt11char_traitsIcESaIcEEE
	.align 2
	.type	_ZZ4mainENKUl4infoE_clES_, @function
_ZZ4mainENKUl4infoE_clES_:
.LFB6822:
	.cfi_startproc
	pushq	%rbp
	.cfi_def_cfa_offset 16
	.cfi_offset 6, -16
	movq	%rsp, %rbp
	.cfi_def_cfa_register 6
	subq	$32, %rsp
	movq	%rdi, -24(%rbp)
	movq	%rsi, -32(%rbp)
	movq	%fs:40, %rax
	movq	%rax, -8(%rbp)
	xorl	%eax, %eax
	movq	-24(%rbp), %rdx
	movq	-32(%rbp), %rax
	movq	%rdx, %rsi
	movq	%rax, %rdi
	call	_ZNKSt7__cxx1112basic_stringIcSt11char_traitsIcESaIcEE7compareERKS4_
	testl	%eax, %eax
	sete	%al
	movq	-8(%rbp), %rcx
	xorq	%fs:40, %rcx
	je	.L46
	call	__stack_chk_fail
.L46:
	leave
	.cfi_def_cfa 7, 8
	ret
	.cfi_endproc
.LFE6822:
	.size	_ZZ4mainENKUl4infoE_clES_, .-_ZZ4mainENKUl4infoE_clES_
	.align 2
	.type	_ZZ4mainENUl4infoE_D2Ev, @function
_ZZ4mainENUl4infoE_D2Ev:
.LFB6824:
	.cfi_startproc
	pushq	%rbp
	.cfi_def_cfa_offset 16
	.cfi_offset 6, -16
	movq	%rsp, %rbp
	.cfi_def_cfa_register 6
	subq	$16, %rsp
	movq	%rdi, -8(%rbp)
	movq	-8(%rbp), %rax
	movq	%rax, %rdi
	call	_ZNSt7__cxx1112basic_stringIcSt11char_traitsIcESaIcEED1Ev
	nop
	leave
	.cfi_def_cfa 7, 8
	ret
	.cfi_endproc
.LFE6824:
	.size	_ZZ4mainENUl4infoE_D2Ev, .-_ZZ4mainENUl4infoE_D2Ev
	.set	_ZZ4mainENUl4infoE_D1Ev,_ZZ4mainENUl4infoE_D2Ev
	.section	.rodata
.LC6:
	.string	"What's the database file?\n>"
.LC7:
	.string	"command: "
	.align 8
.LC8:
	.string	"Thanks for using Will's database!\n"
	.text
	.globl	main
	.type	main, @function
main:
.LFB6821:
	.cfi_startproc
	.cfi_personality 0x3,__gxx_personality_v0
	.cfi_lsda 0x3,.LLSDA6821
	pushq	%rbp
	.cfi_def_cfa_offset 16
	.cfi_offset 6, -16
	movq	%rsp, %rbp
	.cfi_def_cfa_register 6
	pushq	%rbx
	subq	$232, %rsp
	.cfi_offset 3, -24
	movq	%fs:40, %rax
	movq	%rax, -24(%rbp)
	xorl	%eax, %eax
	leaq	-224(%rbp), %rax
	movq	%rax, %rdi
	call	_ZNSt7__cxx1112basic_stringIcSt11char_traitsIcESaIcEEC1Ev
	leaq	-192(%rbp), %rax
	movq	%rax, %rdi
	call	_ZNSt7__cxx1112basic_stringIcSt11char_traitsIcESaIcEEC1Ev
	movl	$.LC6, %esi
	movl	$_ZSt4cout, %edi
.LEHB10:
	call	_ZStlsISt11char_traitsIcEERSt13basic_ostreamIcT_ES5_PKc
	leaq	-224(%rbp), %rax
	movq	%rax, %rsi
	movl	$_ZSt3cin, %edi
	call	_ZStrsIcSt11char_traitsIcESaIcEERSt13basic_istreamIT_T0_ES7_RNSt7__cxx1112basic_stringIS4_S5_T1_EE
	leaq	-224(%rbp), %rdx
	leaq	-160(%rbp), %rax
	movq	%rdx, %rsi
	movq	%rax, %rdi
	call	_ZNSt7__cxx1112basic_stringIcSt11char_traitsIcESaIcEEC1ERKS4_
.LEHE10:
	leaq	-160(%rbp), %rax
	movq	%rax, %rdi
.LEHB11:
	call	_Z6readInNSt7__cxx1112basic_stringIcSt11char_traitsIcESaIcEEE
.LEHE11:
	leaq	-160(%rbp), %rax
	movq	%rax, %rdi
	call	_ZNSt7__cxx1112basic_stringIcSt11char_traitsIcESaIcEED1Ev
	movl	$.LC7, %esi
	movl	$_ZSt4cout, %edi
.LEHB12:
	call	_ZStlsISt11char_traitsIcEERSt13basic_ostreamIcT_ES5_PKc
	leaq	-225(%rbp), %rax
	movq	%rax, %rsi
	movl	$_ZSt3cin, %edi
	call	_ZStrsIcSt11char_traitsIcEERSt13basic_istreamIT_T0_ES6_RS3_
.L55:
	movzbl	-225(%rbp), %eax
	movsbl	%al, %eax
	cmpl	$102, %eax
	je	.L50
	cmpl	$108, %eax
	je	.L51
	cmpl	$101, %eax
	je	.L52
	nop
.L54:
	leaq	-224(%rbp), %rdx
	leaq	-64(%rbp), %rax
	movq	%rdx, %rsi
	movq	%rax, %rdi
	call	_ZNSt7__cxx1112basic_stringIcSt11char_traitsIcESaIcEEC1ERKS4_
	jmp	.L68
.L52:
	leaq	-192(%rbp), %rax
	movq	%rax, %rsi
	movl	$_ZSt3cin, %edi
	call	_ZStrsIcSt11char_traitsIcESaIcEERSt13basic_istreamIT_T0_ES7_RNSt7__cxx1112basic_stringIS4_S5_T1_EE
	leaq	-192(%rbp), %rdx
	leaq	-128(%rbp), %rax
	movq	%rdx, %rsi
	movq	%rax, %rdi
	call	_ZNSt7__cxx1112basic_stringIcSt11char_traitsIcESaIcEEC1ERKS4_
.LEHE12:
	leaq	-128(%rbp), %rax
	movq	%rax, %rdi
.LEHB13:
	call	_Z5enterNSt7__cxx1112basic_stringIcSt11char_traitsIcESaIcEEE
.LEHE13:
	leaq	-128(%rbp), %rax
	movq	%rax, %rdi
	call	_ZNSt7__cxx1112basic_stringIcSt11char_traitsIcESaIcEED1Ev
	jmp	.L53
.L50:
	leaq	-192(%rbp), %rax
	movq	%rax, %rsi
	movl	$_ZSt3cin, %edi
.LEHB14:
	call	_ZStrsIcSt11char_traitsIcESaIcEERSt13basic_istreamIT_T0_ES7_RNSt7__cxx1112basic_stringIS4_S5_T1_EE
	leaq	-192(%rbp), %rdx
	leaq	-96(%rbp), %rax
	movq	%rdx, %rsi
	movq	%rax, %rdi
	call	_ZNSt7__cxx1112basic_stringIcSt11char_traitsIcESaIcEEC1ERKS4_
.LEHE14:
	movl	$entry, %edi
	call	_ZNSt6vectorI4infoSaIS0_EE3endEv
	movq	%rax, %rbx
	movl	$entry, %edi
	call	_ZNSt6vectorI4infoSaIS0_EE5beginEv
	movq	%rax, %rcx
	leaq	-96(%rbp), %rax
	movq	%rax, %rdx
	movq	%rbx, %rsi
	movq	%rcx, %rdi
.LEHB15:
	call	_ZSt7find_ifIN9__gnu_cxx17__normal_iteratorIP4infoSt6vectorIS2_SaIS2_EEEEZ4mainEUlS2_E_ET_S9_S9_T0_
	movq	%rax, %rdi
	call	_Z10print_findN9__gnu_cxx17__normal_iteratorIP4infoSt6vectorIS1_SaIS1_EEEE
.LEHE15:
	leaq	-96(%rbp), %rax
	movq	%rax, %rdi
	call	_ZZ4mainENUl4infoE_D1Ev
	jmp	.L53
.L51:
	movl	$entry, %edi
	call	_ZNSt6vectorI4infoSaIS0_EE3endEv
	movq	%rax, %rbx
	movl	$entry, %edi
	call	_ZNSt6vectorI4infoSaIS0_EE5beginEv
	movl	$_Z9print_all4info, %edx
	movq	%rbx, %rsi
	movq	%rax, %rdi
.LEHB16:
	call	_ZSt8for_eachIN9__gnu_cxx17__normal_iteratorIP4infoSt6vectorIS2_SaIS2_EEEEPFvS2_EET0_T_SB_SA_
	nop
.L53:
	movl	$.LC7, %esi
	movl	$_ZSt4cout, %edi
	call	_ZStlsISt11char_traitsIcEERSt13basic_ostreamIcT_ES5_PKc
	leaq	-225(%rbp), %rax
	movq	%rax, %rsi
	movl	$_ZSt3cin, %edi
	call	_ZStrsIcSt11char_traitsIcEERSt13basic_istreamIT_T0_ES6_RS3_
.LEHE16:
	jmp	.L55
.L68:
	leaq	-64(%rbp), %rax
	movq	%rax, %rdi
.LEHB17:
	call	_Z5writeNSt7__cxx1112basic_stringIcSt11char_traitsIcESaIcEEE
.LEHE17:
	leaq	-64(%rbp), %rax
	movq	%rax, %rdi
	call	_ZNSt7__cxx1112basic_stringIcSt11char_traitsIcESaIcEED1Ev
	movl	$.LC8, %esi
	movl	$_ZSt4cout, %edi
.LEHB18:
	call	_ZStlsISt11char_traitsIcEERSt13basic_ostreamIcT_ES5_PKc
.LEHE18:
	movl	$0, %ebx
	leaq	-192(%rbp), %rax
	movq	%rax, %rdi
	call	_ZNSt7__cxx1112basic_stringIcSt11char_traitsIcESaIcEED1Ev
	leaq	-224(%rbp), %rax
	movq	%rax, %rdi
	call	_ZNSt7__cxx1112basic_stringIcSt11char_traitsIcESaIcEED1Ev
	movl	%ebx, %eax
	movq	-24(%rbp), %rcx
	xorq	%fs:40, %rcx
	je	.L62
	jmp	.L69
.L64:
	movq	%rax, %rbx
	leaq	-160(%rbp), %rax
	movq	%rax, %rdi
	call	_ZNSt7__cxx1112basic_stringIcSt11char_traitsIcESaIcEED1Ev
	jmp	.L58
.L65:
	movq	%rax, %rbx
	leaq	-128(%rbp), %rax
	movq	%rax, %rdi
	call	_ZNSt7__cxx1112basic_stringIcSt11char_traitsIcESaIcEED1Ev
	jmp	.L58
.L66:
	movq	%rax, %rbx
	leaq	-96(%rbp), %rax
	movq	%rax, %rdi
	call	_ZZ4mainENUl4infoE_D1Ev
	jmp	.L58
.L67:
	movq	%rax, %rbx
	leaq	-64(%rbp), %rax
	movq	%rax, %rdi
	call	_ZNSt7__cxx1112basic_stringIcSt11char_traitsIcESaIcEED1Ev
	jmp	.L58
.L63:
	movq	%rax, %rbx
.L58:
	leaq	-192(%rbp), %rax
	movq	%rax, %rdi
	call	_ZNSt7__cxx1112basic_stringIcSt11char_traitsIcESaIcEED1Ev
	leaq	-224(%rbp), %rax
	movq	%rax, %rdi
	call	_ZNSt7__cxx1112basic_stringIcSt11char_traitsIcESaIcEED1Ev
	movq	%rbx, %rax
	movq	%rax, %rdi
.LEHB19:
	call	_Unwind_Resume
.LEHE19:
.L69:
	call	__stack_chk_fail
.L62:
	addq	$232, %rsp
	popq	%rbx
	popq	%rbp
	.cfi_def_cfa 7, 8
	ret
	.cfi_endproc
.LFE6821:
	.section	.gcc_except_table
.LLSDA6821:
	.byte	0xff
	.byte	0xff
	.byte	0x1
	.uleb128 .LLSDACSE6821-.LLSDACSB6821
.LLSDACSB6821:
	.uleb128 .LEHB10-.LFB6821
	.uleb128 .LEHE10-.LEHB10
	.uleb128 .L63-.LFB6821
	.uleb128 0
	.uleb128 .LEHB11-.LFB6821
	.uleb128 .LEHE11-.LEHB11
	.uleb128 .L64-.LFB6821
	.uleb128 0
	.uleb128 .LEHB12-.LFB6821
	.uleb128 .LEHE12-.LEHB12
	.uleb128 .L63-.LFB6821
	.uleb128 0
	.uleb128 .LEHB13-.LFB6821
	.uleb128 .LEHE13-.LEHB13
	.uleb128 .L65-.LFB6821
	.uleb128 0
	.uleb128 .LEHB14-.LFB6821
	.uleb128 .LEHE14-.LEHB14
	.uleb128 .L63-.LFB6821
	.uleb128 0
	.uleb128 .LEHB15-.LFB6821
	.uleb128 .LEHE15-.LEHB15
	.uleb128 .L66-.LFB6821
	.uleb128 0
	.uleb128 .LEHB16-.LFB6821
	.uleb128 .LEHE16-.LEHB16
	.uleb128 .L63-.LFB6821
	.uleb128 0
	.uleb128 .LEHB17-.LFB6821
	.uleb128 .LEHE17-.LEHB17
	.uleb128 .L67-.LFB6821
	.uleb128 0
	.uleb128 .LEHB18-.LFB6821
	.uleb128 .LEHE18-.LEHB18
	.uleb128 .L63-.LFB6821
	.uleb128 0
	.uleb128 .LEHB19-.LFB6821
	.uleb128 .LEHE19-.LEHB19
	.uleb128 0
	.uleb128 0
.LLSDACSE6821:
	.text
	.size	main, .-main
	.section	.text._ZNSt6vectorI4infoSaIS0_EEC2Ev,"axG",@progbits,_ZNSt6vectorI4infoSaIS0_EEC5Ev,comdat
	.align 2
	.weak	_ZNSt6vectorI4infoSaIS0_EEC2Ev
	.type	_ZNSt6vectorI4infoSaIS0_EEC2Ev, @function
_ZNSt6vectorI4infoSaIS0_EEC2Ev:
.LFB6971:
	.cfi_startproc
	.cfi_personality 0x3,__gxx_personality_v0
	.cfi_lsda 0x3,.LLSDA6971
	pushq	%rbp
	.cfi_def_cfa_offset 16
	.cfi_offset 6, -16
	movq	%rsp, %rbp
	.cfi_def_cfa_register 6
	subq	$16, %rsp
	movq	%rdi, -8(%rbp)
	movq	-8(%rbp), %rax
	movq	%rax, %rdi
	call	_ZNSt12_Vector_baseI4infoSaIS0_EEC2Ev
	nop
	leave
	.cfi_def_cfa 7, 8
	ret
	.cfi_endproc
.LFE6971:
	.section	.gcc_except_table
.LLSDA6971:
	.byte	0xff
	.byte	0xff
	.byte	0x1
	.uleb128 .LLSDACSE6971-.LLSDACSB6971
.LLSDACSB6971:
.LLSDACSE6971:
	.section	.text._ZNSt6vectorI4infoSaIS0_EEC2Ev,"axG",@progbits,_ZNSt6vectorI4infoSaIS0_EEC5Ev,comdat
	.size	_ZNSt6vectorI4infoSaIS0_EEC2Ev, .-_ZNSt6vectorI4infoSaIS0_EEC2Ev
	.weak	_ZNSt6vectorI4infoSaIS0_EEC1Ev
	.set	_ZNSt6vectorI4infoSaIS0_EEC1Ev,_ZNSt6vectorI4infoSaIS0_EEC2Ev
	.section	.text._ZNK9__gnu_cxx17__normal_iteratorIP4infoSt6vectorIS1_SaIS1_EEEptEv,"axG",@progbits,_ZNK9__gnu_cxx17__normal_iteratorIP4infoSt6vectorIS1_SaIS1_EEEptEv,comdat
	.align 2
	.weak	_ZNK9__gnu_cxx17__normal_iteratorIP4infoSt6vectorIS1_SaIS1_EEEptEv
	.type	_ZNK9__gnu_cxx17__normal_iteratorIP4infoSt6vectorIS1_SaIS1_EEEptEv, @function
_ZNK9__gnu_cxx17__normal_iteratorIP4infoSt6vectorIS1_SaIS1_EEEptEv:
.LFB6973:
	.cfi_startproc
	pushq	%rbp
	.cfi_def_cfa_offset 16
	.cfi_offset 6, -16
	movq	%rsp, %rbp
	.cfi_def_cfa_register 6
	movq	%rdi, -8(%rbp)
	movq	-8(%rbp), %rax
	movq	(%rax), %rax
	popq	%rbp
	.cfi_def_cfa 7, 8
	ret
	.cfi_endproc
.LFE6973:
	.size	_ZNK9__gnu_cxx17__normal_iteratorIP4infoSt6vectorIS1_SaIS1_EEEptEv, .-_ZNK9__gnu_cxx17__normal_iteratorIP4infoSt6vectorIS1_SaIS1_EEEptEv
	.section	.text._ZNKSt6vectorI4infoSaIS0_EE4sizeEv,"axG",@progbits,_ZNKSt6vectorI4infoSaIS0_EE4sizeEv,comdat
	.align 2
	.weak	_ZNKSt6vectorI4infoSaIS0_EE4sizeEv
	.type	_ZNKSt6vectorI4infoSaIS0_EE4sizeEv, @function
_ZNKSt6vectorI4infoSaIS0_EE4sizeEv:
.LFB6976:
	.cfi_startproc
	pushq	%rbp
	.cfi_def_cfa_offset 16
	.cfi_offset 6, -16
	movq	%rsp, %rbp
	.cfi_def_cfa_register 6
	movq	%rdi, -8(%rbp)
	movq	-8(%rbp), %rax
	movq	8(%rax), %rax
	movq	%rax, %rdx
	movq	-8(%rbp), %rax
	movq	(%rax), %rax
	subq	%rax, %rdx
	movq	%rdx, %rax
	sarq	$3, %rax
	movq	%rax, %rdx
	movabsq	$-8198552921648689607, %rax
	imulq	%rdx, %rax
	popq	%rbp
	.cfi_def_cfa 7, 8
	ret
	.cfi_endproc
.LFE6976:
	.size	_ZNKSt6vectorI4infoSaIS0_EE4sizeEv, .-_ZNKSt6vectorI4infoSaIS0_EE4sizeEv
	.section	.text._ZNSt6vectorI4infoSaIS0_EE5beginEv,"axG",@progbits,_ZNSt6vectorI4infoSaIS0_EE5beginEv,comdat
	.align 2
	.weak	_ZNSt6vectorI4infoSaIS0_EE5beginEv
	.type	_ZNSt6vectorI4infoSaIS0_EE5beginEv, @function
_ZNSt6vectorI4infoSaIS0_EE5beginEv:
.LFB6984:
	.cfi_startproc
	pushq	%rbp
	.cfi_def_cfa_offset 16
	.cfi_offset 6, -16
	movq	%rsp, %rbp
	.cfi_def_cfa_register 6
	subq	$32, %rsp
	movq	%rdi, -24(%rbp)
	movq	%fs:40, %rax
	movq	%rax, -8(%rbp)
	xorl	%eax, %eax
	movq	-24(%rbp), %rdx
	leaq	-16(%rbp), %rax
	movq	%rdx, %rsi
	movq	%rax, %rdi
	call	_ZN9__gnu_cxx17__normal_iteratorIP4infoSt6vectorIS1_SaIS1_EEEC1ERKS2_
	movq	-16(%rbp), %rax
	movq	-8(%rbp), %rcx
	xorq	%fs:40, %rcx
	je	.L77
	call	__stack_chk_fail
.L77:
	leave
	.cfi_def_cfa 7, 8
	ret
	.cfi_endproc
.LFE6984:
	.size	_ZNSt6vectorI4infoSaIS0_EE5beginEv, .-_ZNSt6vectorI4infoSaIS0_EE5beginEv
	.section	.text._ZNSt6vectorI4infoSaIS0_EE3endEv,"axG",@progbits,_ZNSt6vectorI4infoSaIS0_EE3endEv,comdat
	.align 2
	.weak	_ZNSt6vectorI4infoSaIS0_EE3endEv
	.type	_ZNSt6vectorI4infoSaIS0_EE3endEv, @function
_ZNSt6vectorI4infoSaIS0_EE3endEv:
.LFB6985:
	.cfi_startproc
	pushq	%rbp
	.cfi_def_cfa_offset 16
	.cfi_offset 6, -16
	movq	%rsp, %rbp
	.cfi_def_cfa_register 6
	subq	$32, %rsp
	movq	%rdi, -24(%rbp)
	movq	%fs:40, %rax
	movq	%rax, -8(%rbp)
	xorl	%eax, %eax
	movq	-24(%rbp), %rax
	leaq	8(%rax), %rdx
	leaq	-16(%rbp), %rax
	movq	%rdx, %rsi
	movq	%rax, %rdi
	call	_ZN9__gnu_cxx17__normal_iteratorIP4infoSt6vectorIS1_SaIS1_EEEC1ERKS2_
	movq	-16(%rbp), %rax
	movq	-8(%rbp), %rcx
	xorq	%fs:40, %rcx
	je	.L80
	call	__stack_chk_fail
.L80:
	leave
	.cfi_def_cfa 7, 8
	ret
	.cfi_endproc
.LFE6985:
	.size	_ZNSt6vectorI4infoSaIS0_EE3endEv, .-_ZNSt6vectorI4infoSaIS0_EE3endEv
	.text
	.align 2
	.type	_ZZ5enterNSt7__cxx1112basic_stringIcSt11char_traitsIcESaIcEEEENUl4infoE_C2ERKS6_, @function
_ZZ5enterNSt7__cxx1112basic_stringIcSt11char_traitsIcESaIcEEEENUl4infoE_C2ERKS6_:
.LFB6993:
	.cfi_startproc
	pushq	%rbp
	.cfi_def_cfa_offset 16
	.cfi_offset 6, -16
	movq	%rsp, %rbp
	.cfi_def_cfa_register 6
	subq	$16, %rsp
	movq	%rdi, -8(%rbp)
	movq	%rsi, -16(%rbp)
	movq	-16(%rbp), %rdx
	movq	-8(%rbp), %rax
	movq	%rdx, %rsi
	movq	%rax, %rdi
	call	_ZNSt7__cxx1112basic_stringIcSt11char_traitsIcESaIcEEC1ERKS4_
	nop
	leave
	.cfi_def_cfa 7, 8
	ret
	.cfi_endproc
.LFE6993:
	.size	_ZZ5enterNSt7__cxx1112basic_stringIcSt11char_traitsIcESaIcEEEENUl4infoE_C2ERKS6_, .-_ZZ5enterNSt7__cxx1112basic_stringIcSt11char_traitsIcESaIcEEEENUl4infoE_C2ERKS6_
	.set	_ZZ5enterNSt7__cxx1112basic_stringIcSt11char_traitsIcESaIcEEEENUl4infoE_C1ERKS6_,_ZZ5enterNSt7__cxx1112basic_stringIcSt11char_traitsIcESaIcEEEENUl4infoE_C2ERKS6_
	.align 2
	.type	_ZN9__gnu_cxx5__ops10_Iter_predIZ5enterNSt7__cxx1112basic_stringIcSt11char_traitsIcESaIcEEEEUl4infoE_ED2Ev, @function
_ZN9__gnu_cxx5__ops10_Iter_predIZ5enterNSt7__cxx1112basic_stringIcSt11char_traitsIcESaIcEEEEUl4infoE_ED2Ev:
.LFB6996:
	.cfi_startproc
	pushq	%rbp
	.cfi_def_cfa_offset 16
	.cfi_offset 6, -16
	movq	%rsp, %rbp
	.cfi_def_cfa_register 6
	subq	$16, %rsp
	movq	%rdi, -8(%rbp)
	movq	-8(%rbp), %rax
	movq	%rax, %rdi
	call	_ZZ5enterNSt7__cxx1112basic_stringIcSt11char_traitsIcESaIcEEEENUl4infoE_D1Ev
	nop
	leave
	.cfi_def_cfa 7, 8
	ret
	.cfi_endproc
.LFE6996:
	.size	_ZN9__gnu_cxx5__ops10_Iter_predIZ5enterNSt7__cxx1112basic_stringIcSt11char_traitsIcESaIcEEEEUl4infoE_ED2Ev, .-_ZN9__gnu_cxx5__ops10_Iter_predIZ5enterNSt7__cxx1112basic_stringIcSt11char_traitsIcESaIcEEEEUl4infoE_ED2Ev
	.set	_ZN9__gnu_cxx5__ops10_Iter_predIZ5enterNSt7__cxx1112basic_stringIcSt11char_traitsIcESaIcEEEEUl4infoE_ED1Ev,_ZN9__gnu_cxx5__ops10_Iter_predIZ5enterNSt7__cxx1112basic_stringIcSt11char_traitsIcESaIcEEEEUl4infoE_ED2Ev
	.type	_ZSt7find_ifIN9__gnu_cxx17__normal_iteratorIP4infoSt6vectorIS2_SaIS2_EEEEZ5enterNSt7__cxx1112basic_stringIcSt11char_traitsIcESaIcEEEEUlS2_E_ET_SF_SF_T0_, @function
_ZSt7find_ifIN9__gnu_cxx17__normal_iteratorIP4infoSt6vectorIS2_SaIS2_EEEEZ5enterNSt7__cxx1112basic_stringIcSt11char_traitsIcESaIcEEEEUlS2_E_ET_SF_SF_T0_:
.LFB6991:
	.cfi_startproc
	.cfi_personality 0x3,__gxx_personality_v0
	.cfi_lsda 0x3,.LLSDA6991
	pushq	%rbp
	.cfi_def_cfa_offset 16
	.cfi_offset 6, -16
	movq	%rsp, %rbp
	.cfi_def_cfa_register 6
	pushq	%rbx
	subq	$120, %rsp
	.cfi_offset 3, -24
	movq	%rdi, -112(%rbp)
	movq	%rsi, -128(%rbp)
	movq	%rdx, -120(%rbp)
	movq	%fs:40, %rax
	movq	%rax, -24(%rbp)
	xorl	%eax, %eax
	movq	-120(%rbp), %rdx
	leaq	-96(%rbp), %rax
	movq	%rdx, %rsi
	movq	%rax, %rdi
.LEHB20:
	call	_ZZ5enterNSt7__cxx1112basic_stringIcSt11char_traitsIcESaIcEEEENUl4infoE_C1ERKS6_
.LEHE20:
	leaq	-64(%rbp), %rax
	leaq	-96(%rbp), %rdx
	movq	%rdx, %rsi
	movq	%rax, %rdi
.LEHB21:
	call	_ZN9__gnu_cxx5__ops11__pred_iterIZ5enterNSt7__cxx1112basic_stringIcSt11char_traitsIcESaIcEEEEUl4infoE_EENS0_10_Iter_predIT_EESB_
.LEHE21:
	leaq	-64(%rbp), %rdx
	movq	-128(%rbp), %rcx
	movq	-112(%rbp), %rax
	movq	%rcx, %rsi
	movq	%rax, %rdi
.LEHB22:
	call	_ZSt9__find_ifIN9__gnu_cxx17__normal_iteratorIP4infoSt6vectorIS2_SaIS2_EEEENS0_5__ops10_Iter_predIZ5enterNSt7__cxx1112basic_stringIcSt11char_traitsIcESaIcEEEEUlS2_E_EEET_SI_SI_T0_
.LEHE22:
	movq	%rax, %rbx
	leaq	-64(%rbp), %rax
	movq	%rax, %rdi
	call	_ZN9__gnu_cxx5__ops10_Iter_predIZ5enterNSt7__cxx1112basic_stringIcSt11char_traitsIcESaIcEEEEUl4infoE_ED1Ev
	leaq	-96(%rbp), %rax
	movq	%rax, %rdi
	call	_ZZ5enterNSt7__cxx1112basic_stringIcSt11char_traitsIcESaIcEEEENUl4infoE_D1Ev
	movq	%rbx, %rax
	movq	-24(%rbp), %rcx
	xorq	%fs:40, %rcx
	je	.L87
	jmp	.L90
.L89:
	movq	%rax, %rbx
	leaq	-64(%rbp), %rax
	movq	%rax, %rdi
	call	_ZN9__gnu_cxx5__ops10_Iter_predIZ5enterNSt7__cxx1112basic_stringIcSt11char_traitsIcESaIcEEEEUl4infoE_ED1Ev
	jmp	.L86
.L88:
	movq	%rax, %rbx
.L86:
	leaq	-96(%rbp), %rax
	movq	%rax, %rdi
	call	_ZZ5enterNSt7__cxx1112basic_stringIcSt11char_traitsIcESaIcEEEENUl4infoE_D1Ev
	movq	%rbx, %rax
	movq	%rax, %rdi
.LEHB23:
	call	_Unwind_Resume
.LEHE23:
.L90:
	call	__stack_chk_fail
.L87:
	addq	$120, %rsp
	popq	%rbx
	popq	%rbp
	.cfi_def_cfa 7, 8
	ret
	.cfi_endproc
.LFE6991:
	.section	.gcc_except_table
.LLSDA6991:
	.byte	0xff
	.byte	0xff
	.byte	0x1
	.uleb128 .LLSDACSE6991-.LLSDACSB6991
.LLSDACSB6991:
	.uleb128 .LEHB20-.LFB6991
	.uleb128 .LEHE20-.LEHB20
	.uleb128 0
	.uleb128 0
	.uleb128 .LEHB21-.LFB6991
	.uleb128 .LEHE21-.LEHB21
	.uleb128 .L88-.LFB6991
	.uleb128 0
	.uleb128 .LEHB22-.LFB6991
	.uleb128 .LEHE22-.LEHB22
	.uleb128 .L89-.LFB6991
	.uleb128 0
	.uleb128 .LEHB23-.LFB6991
	.uleb128 .LEHE23-.LEHB23
	.uleb128 0
	.uleb128 0
.LLSDACSE6991:
	.text
	.size	_ZSt7find_ifIN9__gnu_cxx17__normal_iteratorIP4infoSt6vectorIS2_SaIS2_EEEEZ5enterNSt7__cxx1112basic_stringIcSt11char_traitsIcESaIcEEEEUlS2_E_ET_SF_SF_T0_, .-_ZSt7find_ifIN9__gnu_cxx17__normal_iteratorIP4infoSt6vectorIS2_SaIS2_EEEEZ5enterNSt7__cxx1112basic_stringIcSt11char_traitsIcESaIcEEEEUlS2_E_ET_SF_SF_T0_
	.section	.text._ZN9__gnu_cxxeqIP4infoSt6vectorIS1_SaIS1_EEEEbRKNS_17__normal_iteratorIT_T0_EESB_,"axG",@progbits,_ZN9__gnu_cxxeqIP4infoSt6vectorIS1_SaIS1_EEEEbRKNS_17__normal_iteratorIT_T0_EESB_,comdat
	.weak	_ZN9__gnu_cxxeqIP4infoSt6vectorIS1_SaIS1_EEEEbRKNS_17__normal_iteratorIT_T0_EESB_
	.type	_ZN9__gnu_cxxeqIP4infoSt6vectorIS1_SaIS1_EEEEbRKNS_17__normal_iteratorIT_T0_EESB_, @function
_ZN9__gnu_cxxeqIP4infoSt6vectorIS1_SaIS1_EEEEbRKNS_17__normal_iteratorIT_T0_EESB_:
.LFB7001:
	.cfi_startproc
	pushq	%rbp
	.cfi_def_cfa_offset 16
	.cfi_offset 6, -16
	movq	%rsp, %rbp
	.cfi_def_cfa_register 6
	pushq	%rbx
	subq	$24, %rsp
	.cfi_offset 3, -24
	movq	%rdi, -24(%rbp)
	movq	%rsi, -32(%rbp)
	movq	-24(%rbp), %rax
	movq	%rax, %rdi
	call	_ZNK9__gnu_cxx17__normal_iteratorIP4infoSt6vectorIS1_SaIS1_EEE4baseEv
	movq	(%rax), %rbx
	movq	-32(%rbp), %rax
	movq	%rax, %rdi
	call	_ZNK9__gnu_cxx17__normal_iteratorIP4infoSt6vectorIS1_SaIS1_EEE4baseEv
	movq	(%rax), %rax
	cmpq	%rax, %rbx
	sete	%al
	addq	$24, %rsp
	popq	%rbx
	popq	%rbp
	.cfi_def_cfa 7, 8
	ret
	.cfi_endproc
.LFE7001:
	.size	_ZN9__gnu_cxxeqIP4infoSt6vectorIS1_SaIS1_EEEEbRKNS_17__normal_iteratorIT_T0_EESB_, .-_ZN9__gnu_cxxeqIP4infoSt6vectorIS1_SaIS1_EEEEbRKNS_17__normal_iteratorIT_T0_EESB_
	.section	.text._ZNSt6vectorI4infoSaIS0_EE9push_backERKS0_,"axG",@progbits,_ZNSt6vectorI4infoSaIS0_EE9push_backERKS0_,comdat
	.align 2
	.weak	_ZNSt6vectorI4infoSaIS0_EE9push_backERKS0_
	.type	_ZNSt6vectorI4infoSaIS0_EE9push_backERKS0_, @function
_ZNSt6vectorI4infoSaIS0_EE9push_backERKS0_:
.LFB7003:
	.cfi_startproc
	pushq	%rbp
	.cfi_def_cfa_offset 16
	.cfi_offset 6, -16
	movq	%rsp, %rbp
	.cfi_def_cfa_register 6
	subq	$16, %rsp
	movq	%rdi, -8(%rbp)
	movq	%rsi, -16(%rbp)
	movq	-8(%rbp), %rax
	movq	8(%rax), %rdx
	movq	-8(%rbp), %rax
	movq	16(%rax), %rax
	cmpq	%rax, %rdx
	je	.L94
	movq	-8(%rbp), %rax
	movq	8(%rax), %rcx
	movq	-8(%rbp), %rax
	movq	-16(%rbp), %rdx
	movq	%rcx, %rsi
	movq	%rax, %rdi
	call	_ZNSt16allocator_traitsISaI4infoEE9constructIS0_JRKS0_EEEvRS1_PT_DpOT0_
	movq	-8(%rbp), %rax
	movq	8(%rax), %rax
	leaq	72(%rax), %rdx
	movq	-8(%rbp), %rax
	movq	%rdx, 8(%rax)
	jmp	.L96
.L94:
	movq	-16(%rbp), %rdx
	movq	-8(%rbp), %rax
	movq	%rdx, %rsi
	movq	%rax, %rdi
	call	_ZNSt6vectorI4infoSaIS0_EE19_M_emplace_back_auxIJRKS0_EEEvDpOT_
.L96:
	nop
	leave
	.cfi_def_cfa 7, 8
	ret
	.cfi_endproc
.LFE7003:
	.size	_ZNSt6vectorI4infoSaIS0_EE9push_backERKS0_, .-_ZNSt6vectorI4infoSaIS0_EE9push_backERKS0_
	.section	.text._ZNSt6vectorI4infoSaIS0_EEixEm,"axG",@progbits,_ZNSt6vectorI4infoSaIS0_EEixEm,comdat
	.align 2
	.weak	_ZNSt6vectorI4infoSaIS0_EEixEm
	.type	_ZNSt6vectorI4infoSaIS0_EEixEm, @function
_ZNSt6vectorI4infoSaIS0_EEixEm:
.LFB7022:
	.cfi_startproc
	pushq	%rbp
	.cfi_def_cfa_offset 16
	.cfi_offset 6, -16
	movq	%rsp, %rbp
	.cfi_def_cfa_register 6
	movq	%rdi, -8(%rbp)
	movq	%rsi, -16(%rbp)
	movq	-8(%rbp), %rax
	movq	(%rax), %rcx
	movq	-16(%rbp), %rdx
	movq	%rdx, %rax
	salq	$3, %rax
	addq	%rdx, %rax
	salq	$3, %rax
	addq	%rcx, %rax
	popq	%rbp
	.cfi_def_cfa 7, 8
	ret
	.cfi_endproc
.LFE7022:
	.size	_ZNSt6vectorI4infoSaIS0_EEixEm, .-_ZNSt6vectorI4infoSaIS0_EEixEm
	.text
	.align 2
	.type	_ZZ4mainENUl4infoE_C2ERKS0_, @function
_ZZ4mainENUl4infoE_C2ERKS0_:
.LFB7026:
	.cfi_startproc
	pushq	%rbp
	.cfi_def_cfa_offset 16
	.cfi_offset 6, -16
	movq	%rsp, %rbp
	.cfi_def_cfa_register 6
	subq	$16, %rsp
	movq	%rdi, -8(%rbp)
	movq	%rsi, -16(%rbp)
	movq	-16(%rbp), %rdx
	movq	-8(%rbp), %rax
	movq	%rdx, %rsi
	movq	%rax, %rdi
	call	_ZNSt7__cxx1112basic_stringIcSt11char_traitsIcESaIcEEC1ERKS4_
	nop
	leave
	.cfi_def_cfa 7, 8
	ret
	.cfi_endproc
.LFE7026:
	.size	_ZZ4mainENUl4infoE_C2ERKS0_, .-_ZZ4mainENUl4infoE_C2ERKS0_
	.set	_ZZ4mainENUl4infoE_C1ERKS0_,_ZZ4mainENUl4infoE_C2ERKS0_
	.align 2
	.type	_ZN9__gnu_cxx5__ops10_Iter_predIZ4mainEUl4infoE_ED2Ev, @function
_ZN9__gnu_cxx5__ops10_Iter_predIZ4mainEUl4infoE_ED2Ev:
.LFB7029:
	.cfi_startproc
	pushq	%rbp
	.cfi_def_cfa_offset 16
	.cfi_offset 6, -16
	movq	%rsp, %rbp
	.cfi_def_cfa_register 6
	subq	$16, %rsp
	movq	%rdi, -8(%rbp)
	movq	-8(%rbp), %rax
	movq	%rax, %rdi
	call	_ZZ4mainENUl4infoE_D1Ev
	nop
	leave
	.cfi_def_cfa 7, 8
	ret
	.cfi_endproc
.LFE7029:
	.size	_ZN9__gnu_cxx5__ops10_Iter_predIZ4mainEUl4infoE_ED2Ev, .-_ZN9__gnu_cxx5__ops10_Iter_predIZ4mainEUl4infoE_ED2Ev
	.set	_ZN9__gnu_cxx5__ops10_Iter_predIZ4mainEUl4infoE_ED1Ev,_ZN9__gnu_cxx5__ops10_Iter_predIZ4mainEUl4infoE_ED2Ev
	.type	_ZSt7find_ifIN9__gnu_cxx17__normal_iteratorIP4infoSt6vectorIS2_SaIS2_EEEEZ4mainEUlS2_E_ET_S9_S9_T0_, @function
_ZSt7find_ifIN9__gnu_cxx17__normal_iteratorIP4infoSt6vectorIS2_SaIS2_EEEEZ4mainEUlS2_E_ET_S9_S9_T0_:
.LFB7024:
	.cfi_startproc
	.cfi_personality 0x3,__gxx_personality_v0
	.cfi_lsda 0x3,.LLSDA7024
	pushq	%rbp
	.cfi_def_cfa_offset 16
	.cfi_offset 6, -16
	movq	%rsp, %rbp
	.cfi_def_cfa_register 6
	pushq	%rbx
	subq	$120, %rsp
	.cfi_offset 3, -24
	movq	%rdi, -112(%rbp)
	movq	%rsi, -128(%rbp)
	movq	%rdx, -120(%rbp)
	movq	%fs:40, %rax
	movq	%rax, -24(%rbp)
	xorl	%eax, %eax
	movq	-120(%rbp), %rdx
	leaq	-96(%rbp), %rax
	movq	%rdx, %rsi
	movq	%rax, %rdi
.LEHB24:
	call	_ZZ4mainENUl4infoE_C1ERKS0_
.LEHE24:
	leaq	-64(%rbp), %rax
	leaq	-96(%rbp), %rdx
	movq	%rdx, %rsi
	movq	%rax, %rdi
.LEHB25:
	call	_ZN9__gnu_cxx5__ops11__pred_iterIZ4mainEUl4infoE_EENS0_10_Iter_predIT_EES5_
.LEHE25:
	leaq	-64(%rbp), %rdx
	movq	-128(%rbp), %rcx
	movq	-112(%rbp), %rax
	movq	%rcx, %rsi
	movq	%rax, %rdi
.LEHB26:
	call	_ZSt9__find_ifIN9__gnu_cxx17__normal_iteratorIP4infoSt6vectorIS2_SaIS2_EEEENS0_5__ops10_Iter_predIZ4mainEUlS2_E_EEET_SC_SC_T0_
.LEHE26:
	movq	%rax, %rbx
	leaq	-64(%rbp), %rax
	movq	%rax, %rdi
	call	_ZN9__gnu_cxx5__ops10_Iter_predIZ4mainEUl4infoE_ED1Ev
	leaq	-96(%rbp), %rax
	movq	%rax, %rdi
	call	_ZZ4mainENUl4infoE_D1Ev
	movq	%rbx, %rax
	movq	-24(%rbp), %rcx
	xorq	%fs:40, %rcx
	je	.L105
	jmp	.L108
.L107:
	movq	%rax, %rbx
	leaq	-64(%rbp), %rax
	movq	%rax, %rdi
	call	_ZN9__gnu_cxx5__ops10_Iter_predIZ4mainEUl4infoE_ED1Ev
	jmp	.L104
.L106:
	movq	%rax, %rbx
.L104:
	leaq	-96(%rbp), %rax
	movq	%rax, %rdi
	call	_ZZ4mainENUl4infoE_D1Ev
	movq	%rbx, %rax
	movq	%rax, %rdi
.LEHB27:
	call	_Unwind_Resume
.LEHE27:
.L108:
	call	__stack_chk_fail
.L105:
	addq	$120, %rsp
	popq	%rbx
	popq	%rbp
	.cfi_def_cfa 7, 8
	ret
	.cfi_endproc
.LFE7024:
	.section	.gcc_except_table
.LLSDA7024:
	.byte	0xff
	.byte	0xff
	.byte	0x1
	.uleb128 .LLSDACSE7024-.LLSDACSB7024
.LLSDACSB7024:
	.uleb128 .LEHB24-.LFB7024
	.uleb128 .LEHE24-.LEHB24
	.uleb128 0
	.uleb128 0
	.uleb128 .LEHB25-.LFB7024
	.uleb128 .LEHE25-.LEHB25
	.uleb128 .L106-.LFB7024
	.uleb128 0
	.uleb128 .LEHB26-.LFB7024
	.uleb128 .LEHE26-.LEHB26
	.uleb128 .L107-.LFB7024
	.uleb128 0
	.uleb128 .LEHB27-.LFB7024
	.uleb128 .LEHE27-.LEHB27
	.uleb128 0
	.uleb128 0
.LLSDACSE7024:
	.text
	.size	_ZSt7find_ifIN9__gnu_cxx17__normal_iteratorIP4infoSt6vectorIS2_SaIS2_EEEEZ4mainEUlS2_E_ET_S9_S9_T0_, .-_ZSt7find_ifIN9__gnu_cxx17__normal_iteratorIP4infoSt6vectorIS2_SaIS2_EEEEZ4mainEUlS2_E_ET_S9_S9_T0_
	.section	.text._ZN4infoC2ERKS_,"axG",@progbits,_ZN4infoC5ERKS_,comdat
	.align 2
	.weak	_ZN4infoC2ERKS_
	.type	_ZN4infoC2ERKS_, @function
_ZN4infoC2ERKS_:
.LFB7036:
	.cfi_startproc
	.cfi_personality 0x3,__gxx_personality_v0
	.cfi_lsda 0x3,.LLSDA7036
	pushq	%rbp
	.cfi_def_cfa_offset 16
	.cfi_offset 6, -16
	movq	%rsp, %rbp
	.cfi_def_cfa_register 6
	pushq	%rbx
	subq	$24, %rsp
	.cfi_offset 3, -24
	movq	%rdi, -24(%rbp)
	movq	%rsi, -32(%rbp)
	movq	-32(%rbp), %rdx
	movq	-24(%rbp), %rax
	movq	%rdx, %rsi
	movq	%rax, %rdi
.LEHB28:
	call	_ZNSt7__cxx1112basic_stringIcSt11char_traitsIcESaIcEEC1ERKS4_
.LEHE28:
	movq	-32(%rbp), %rax
	leaq	32(%rax), %rdx
	movq	-24(%rbp), %rax
	addq	$32, %rax
	movq	%rdx, %rsi
	movq	%rax, %rdi
.LEHB29:
	call	_ZNSt7__cxx1112basic_stringIcSt11char_traitsIcESaIcEEC1ERKS4_
.LEHE29:
	movq	-32(%rbp), %rax
	movl	64(%rax), %edx
	movq	-24(%rbp), %rax
	movl	%edx, 64(%rax)
	jmp	.L112
.L111:
	movq	%rax, %rbx
	movq	-24(%rbp), %rax
	movq	%rax, %rdi
	call	_ZNSt7__cxx1112basic_stringIcSt11char_traitsIcESaIcEED1Ev
	movq	%rbx, %rax
	movq	%rax, %rdi
.LEHB30:
	call	_Unwind_Resume
.LEHE30:
.L112:
	addq	$24, %rsp
	popq	%rbx
	popq	%rbp
	.cfi_def_cfa 7, 8
	ret
	.cfi_endproc
.LFE7036:
	.section	.gcc_except_table
.LLSDA7036:
	.byte	0xff
	.byte	0xff
	.byte	0x1
	.uleb128 .LLSDACSE7036-.LLSDACSB7036
.LLSDACSB7036:
	.uleb128 .LEHB28-.LFB7036
	.uleb128 .LEHE28-.LEHB28
	.uleb128 0
	.uleb128 0
	.uleb128 .LEHB29-.LFB7036
	.uleb128 .LEHE29-.LEHB29
	.uleb128 .L111-.LFB7036
	.uleb128 0
	.uleb128 .LEHB30-.LFB7036
	.uleb128 .LEHE30-.LEHB30
	.uleb128 0
	.uleb128 0
.LLSDACSE7036:
	.section	.text._ZN4infoC2ERKS_,"axG",@progbits,_ZN4infoC5ERKS_,comdat
	.size	_ZN4infoC2ERKS_, .-_ZN4infoC2ERKS_
	.weak	_ZN4infoC1ERKS_
	.set	_ZN4infoC1ERKS_,_ZN4infoC2ERKS_
	.section	.text._ZSt4moveIRPFv4infoEEONSt16remove_referenceIT_E4typeEOS5_,"axG",@progbits,_ZSt4moveIRPFv4infoEEONSt16remove_referenceIT_E4typeEOS5_,comdat
	.weak	_ZSt4moveIRPFv4infoEEONSt16remove_referenceIT_E4typeEOS5_
	.type	_ZSt4moveIRPFv4infoEEONSt16remove_referenceIT_E4typeEOS5_, @function
_ZSt4moveIRPFv4infoEEONSt16remove_referenceIT_E4typeEOS5_:
.LFB7038:
	.cfi_startproc
	pushq	%rbp
	.cfi_def_cfa_offset 16
	.cfi_offset 6, -16
	movq	%rsp, %rbp
	.cfi_def_cfa_register 6
	movq	%rdi, -8(%rbp)
	movq	-8(%rbp), %rax
	popq	%rbp
	.cfi_def_cfa 7, 8
	ret
	.cfi_endproc
.LFE7038:
	.size	_ZSt4moveIRPFv4infoEEONSt16remove_referenceIT_E4typeEOS5_, .-_ZSt4moveIRPFv4infoEEONSt16remove_referenceIT_E4typeEOS5_
	.section	.text._ZSt8for_eachIN9__gnu_cxx17__normal_iteratorIP4infoSt6vectorIS2_SaIS2_EEEEPFvS2_EET0_T_SB_SA_,"axG",@progbits,_ZSt8for_eachIN9__gnu_cxx17__normal_iteratorIP4infoSt6vectorIS2_SaIS2_EEEEPFvS2_EET0_T_SB_SA_,comdat
	.weak	_ZSt8for_eachIN9__gnu_cxx17__normal_iteratorIP4infoSt6vectorIS2_SaIS2_EEEEPFvS2_EET0_T_SB_SA_
	.type	_ZSt8for_eachIN9__gnu_cxx17__normal_iteratorIP4infoSt6vectorIS2_SaIS2_EEEEPFvS2_EET0_T_SB_SA_, @function
_ZSt8for_eachIN9__gnu_cxx17__normal_iteratorIP4infoSt6vectorIS2_SaIS2_EEEEPFvS2_EET0_T_SB_SA_:
.LFB7034:
	.cfi_startproc
	.cfi_personality 0x3,__gxx_personality_v0
	.cfi_lsda 0x3,.LLSDA7034
	pushq	%rbp
	.cfi_def_cfa_offset 16
	.cfi_offset 6, -16
	movq	%rsp, %rbp
	.cfi_def_cfa_register 6
	pushq	%rbx
	subq	$120, %rsp
	.cfi_offset 3, -24
	movq	%rdi, -112(%rbp)
	movq	%rsi, -128(%rbp)
	movq	%rdx, -120(%rbp)
	movq	%fs:40, %rax
	movq	%rax, -24(%rbp)
	xorl	%eax, %eax
.L117:
	leaq	-128(%rbp), %rdx
	leaq	-112(%rbp), %rax
	movq	%rdx, %rsi
	movq	%rax, %rdi
	call	_ZN9__gnu_cxxneIP4infoSt6vectorIS1_SaIS1_EEEEbRKNS_17__normal_iteratorIT_T0_EESB_
	testb	%al, %al
	je	.L116
	movq	-120(%rbp), %rbx
	leaq	-112(%rbp), %rax
	movq	%rax, %rdi
	call	_ZNK9__gnu_cxx17__normal_iteratorIP4infoSt6vectorIS1_SaIS1_EEEdeEv
	movq	%rax, %rdx
	leaq	-96(%rbp), %rax
	movq	%rdx, %rsi
	movq	%rax, %rdi
.LEHB31:
	call	_ZN4infoC1ERKS_
.LEHE31:
	leaq	-96(%rbp), %rax
	movq	%rax, %rdi
.LEHB32:
	call	*%rbx
.LEHE32:
	leaq	-96(%rbp), %rax
	movq	%rax, %rdi
	call	_ZN4infoD1Ev
	leaq	-112(%rbp), %rax
	movq	%rax, %rdi
	call	_ZN9__gnu_cxx17__normal_iteratorIP4infoSt6vectorIS1_SaIS1_EEEppEv
	jmp	.L117
.L116:
	leaq	-120(%rbp), %rax
	movq	%rax, %rdi
	call	_ZSt4moveIRPFv4infoEEONSt16remove_referenceIT_E4typeEOS5_
	movq	(%rax), %rax
	movq	-24(%rbp), %rcx
	xorq	%fs:40, %rcx
	je	.L120
	jmp	.L122
.L121:
	movq	%rax, %rbx
	leaq	-96(%rbp), %rax
	movq	%rax, %rdi
	call	_ZN4infoD1Ev
	movq	%rbx, %rax
	movq	%rax, %rdi
.LEHB33:
	call	_Unwind_Resume
.LEHE33:
.L122:
	call	__stack_chk_fail
.L120:
	addq	$120, %rsp
	popq	%rbx
	popq	%rbp
	.cfi_def_cfa 7, 8
	ret
	.cfi_endproc
.LFE7034:
	.section	.gcc_except_table
.LLSDA7034:
	.byte	0xff
	.byte	0xff
	.byte	0x1
	.uleb128 .LLSDACSE7034-.LLSDACSB7034
.LLSDACSB7034:
	.uleb128 .LEHB31-.LFB7034
	.uleb128 .LEHE31-.LEHB31
	.uleb128 0
	.uleb128 0
	.uleb128 .LEHB32-.LFB7034
	.uleb128 .LEHE32-.LEHB32
	.uleb128 .L121-.LFB7034
	.uleb128 0
	.uleb128 .LEHB33-.LFB7034
	.uleb128 .LEHE33-.LEHB33
	.uleb128 0
	.uleb128 0
.LLSDACSE7034:
	.section	.text._ZSt8for_eachIN9__gnu_cxx17__normal_iteratorIP4infoSt6vectorIS2_SaIS2_EEEEPFvS2_EET0_T_SB_SA_,"axG",@progbits,_ZSt8for_eachIN9__gnu_cxx17__normal_iteratorIP4infoSt6vectorIS2_SaIS2_EEEEPFvS2_EET0_T_SB_SA_,comdat
	.size	_ZSt8for_eachIN9__gnu_cxx17__normal_iteratorIP4infoSt6vectorIS2_SaIS2_EEEEPFvS2_EET0_T_SB_SA_, .-_ZSt8for_eachIN9__gnu_cxx17__normal_iteratorIP4infoSt6vectorIS2_SaIS2_EEEEPFvS2_EET0_T_SB_SA_
	.section	.text._ZNSt12_Vector_baseI4infoSaIS0_EE12_Vector_implD2Ev,"axG",@progbits,_ZNSt12_Vector_baseI4infoSaIS0_EE12_Vector_implD5Ev,comdat
	.align 2
	.weak	_ZNSt12_Vector_baseI4infoSaIS0_EE12_Vector_implD2Ev
	.type	_ZNSt12_Vector_baseI4infoSaIS0_EE12_Vector_implD2Ev, @function
_ZNSt12_Vector_baseI4infoSaIS0_EE12_Vector_implD2Ev:
.LFB7142:
	.cfi_startproc
	pushq	%rbp
	.cfi_def_cfa_offset 16
	.cfi_offset 6, -16
	movq	%rsp, %rbp
	.cfi_def_cfa_register 6
	subq	$16, %rsp
	movq	%rdi, -8(%rbp)
	movq	-8(%rbp), %rax
	movq	%rax, %rdi
	call	_ZNSaI4infoED2Ev
	nop
	leave
	.cfi_def_cfa 7, 8
	ret
	.cfi_endproc
.LFE7142:
	.size	_ZNSt12_Vector_baseI4infoSaIS0_EE12_Vector_implD2Ev, .-_ZNSt12_Vector_baseI4infoSaIS0_EE12_Vector_implD2Ev
	.weak	_ZNSt12_Vector_baseI4infoSaIS0_EE12_Vector_implD1Ev
	.set	_ZNSt12_Vector_baseI4infoSaIS0_EE12_Vector_implD1Ev,_ZNSt12_Vector_baseI4infoSaIS0_EE12_Vector_implD2Ev
	.section	.text._ZNSt12_Vector_baseI4infoSaIS0_EEC2Ev,"axG",@progbits,_ZNSt12_Vector_baseI4infoSaIS0_EEC5Ev,comdat
	.align 2
	.weak	_ZNSt12_Vector_baseI4infoSaIS0_EEC2Ev
	.type	_ZNSt12_Vector_baseI4infoSaIS0_EEC2Ev, @function
_ZNSt12_Vector_baseI4infoSaIS0_EEC2Ev:
.LFB7144:
	.cfi_startproc
	pushq	%rbp
	.cfi_def_cfa_offset 16
	.cfi_offset 6, -16
	movq	%rsp, %rbp
	.cfi_def_cfa_register 6
	subq	$16, %rsp
	movq	%rdi, -8(%rbp)
	movq	-8(%rbp), %rax
	movq	%rax, %rdi
	call	_ZNSt12_Vector_baseI4infoSaIS0_EE12_Vector_implC1Ev
	nop
	leave
	.cfi_def_cfa 7, 8
	ret
	.cfi_endproc
.LFE7144:
	.size	_ZNSt12_Vector_baseI4infoSaIS0_EEC2Ev, .-_ZNSt12_Vector_baseI4infoSaIS0_EEC2Ev
	.weak	_ZNSt12_Vector_baseI4infoSaIS0_EEC1Ev
	.set	_ZNSt12_Vector_baseI4infoSaIS0_EEC1Ev,_ZNSt12_Vector_baseI4infoSaIS0_EEC2Ev
	.section	.text._ZNSt12_Vector_baseI4infoSaIS0_EED2Ev,"axG",@progbits,_ZNSt12_Vector_baseI4infoSaIS0_EED5Ev,comdat
	.align 2
	.weak	_ZNSt12_Vector_baseI4infoSaIS0_EED2Ev
	.type	_ZNSt12_Vector_baseI4infoSaIS0_EED2Ev, @function
_ZNSt12_Vector_baseI4infoSaIS0_EED2Ev:
.LFB7147:
	.cfi_startproc
	.cfi_personality 0x3,__gxx_personality_v0
	.cfi_lsda 0x3,.LLSDA7147
	pushq	%rbp
	.cfi_def_cfa_offset 16
	.cfi_offset 6, -16
	movq	%rsp, %rbp
	.cfi_def_cfa_register 6
	subq	$16, %rsp
	movq	%rdi, -8(%rbp)
	movq	-8(%rbp), %rax
	movq	16(%rax), %rax
	movq	%rax, %rdx
	movq	-8(%rbp), %rax
	movq	(%rax), %rax
	subq	%rax, %rdx
	movq	%rdx, %rax
	sarq	$3, %rax
	movq	%rax, %rdx
	movabsq	$-8198552921648689607, %rax
	imulq	%rdx, %rax
	movq	%rax, %rdx
	movq	-8(%rbp), %rax
	movq	(%rax), %rcx
	movq	-8(%rbp), %rax
	movq	%rcx, %rsi
	movq	%rax, %rdi
	call	_ZNSt12_Vector_baseI4infoSaIS0_EE13_M_deallocateEPS0_m
	movq	-8(%rbp), %rax
	movq	%rax, %rdi
	call	_ZNSt12_Vector_baseI4infoSaIS0_EE12_Vector_implD1Ev
	nop
	leave
	.cfi_def_cfa 7, 8
	ret
	.cfi_endproc
.LFE7147:
	.section	.gcc_except_table
.LLSDA7147:
	.byte	0xff
	.byte	0xff
	.byte	0x1
	.uleb128 .LLSDACSE7147-.LLSDACSB7147
.LLSDACSB7147:
.LLSDACSE7147:
	.section	.text._ZNSt12_Vector_baseI4infoSaIS0_EED2Ev,"axG",@progbits,_ZNSt12_Vector_baseI4infoSaIS0_EED5Ev,comdat
	.size	_ZNSt12_Vector_baseI4infoSaIS0_EED2Ev, .-_ZNSt12_Vector_baseI4infoSaIS0_EED2Ev
	.weak	_ZNSt12_Vector_baseI4infoSaIS0_EED1Ev
	.set	_ZNSt12_Vector_baseI4infoSaIS0_EED1Ev,_ZNSt12_Vector_baseI4infoSaIS0_EED2Ev
	.section	.text._ZN9__gnu_cxx17__normal_iteratorIP4infoSt6vectorIS1_SaIS1_EEEC2ERKS2_,"axG",@progbits,_ZN9__gnu_cxx17__normal_iteratorIP4infoSt6vectorIS1_SaIS1_EEEC5ERKS2_,comdat
	.align 2
	.weak	_ZN9__gnu_cxx17__normal_iteratorIP4infoSt6vectorIS1_SaIS1_EEEC2ERKS2_
	.type	_ZN9__gnu_cxx17__normal_iteratorIP4infoSt6vectorIS1_SaIS1_EEEC2ERKS2_, @function
_ZN9__gnu_cxx17__normal_iteratorIP4infoSt6vectorIS1_SaIS1_EEEC2ERKS2_:
.LFB7153:
	.cfi_startproc
	pushq	%rbp
	.cfi_def_cfa_offset 16
	.cfi_offset 6, -16
	movq	%rsp, %rbp
	.cfi_def_cfa_register 6
	movq	%rdi, -8(%rbp)
	movq	%rsi, -16(%rbp)
	movq	-16(%rbp), %rax
	movq	(%rax), %rdx
	movq	-8(%rbp), %rax
	movq	%rdx, (%rax)
	nop
	popq	%rbp
	.cfi_def_cfa 7, 8
	ret
	.cfi_endproc
.LFE7153:
	.size	_ZN9__gnu_cxx17__normal_iteratorIP4infoSt6vectorIS1_SaIS1_EEEC2ERKS2_, .-_ZN9__gnu_cxx17__normal_iteratorIP4infoSt6vectorIS1_SaIS1_EEEC2ERKS2_
	.weak	_ZN9__gnu_cxx17__normal_iteratorIP4infoSt6vectorIS1_SaIS1_EEEC1ERKS2_
	.set	_ZN9__gnu_cxx17__normal_iteratorIP4infoSt6vectorIS1_SaIS1_EEEC1ERKS2_,_ZN9__gnu_cxx17__normal_iteratorIP4infoSt6vectorIS1_SaIS1_EEEC2ERKS2_
	.text
	.type	_ZN9__gnu_cxx5__ops11__pred_iterIZ5enterNSt7__cxx1112basic_stringIcSt11char_traitsIcESaIcEEEEUl4infoE_EENS0_10_Iter_predIT_EESB_, @function
_ZN9__gnu_cxx5__ops11__pred_iterIZ5enterNSt7__cxx1112basic_stringIcSt11char_traitsIcESaIcEEEEUl4infoE_EENS0_10_Iter_predIT_EESB_:
.LFB7158:
	.cfi_startproc
	.cfi_personality 0x3,__gxx_personality_v0
	.cfi_lsda 0x3,.LLSDA7158
	pushq	%rbp
	.cfi_def_cfa_offset 16
	.cfi_offset 6, -16
	movq	%rsp, %rbp
	.cfi_def_cfa_register 6
	pushq	%rbx
	subq	$72, %rsp
	.cfi_offset 3, -24
	movq	%rdi, -72(%rbp)
	movq	%rsi, -80(%rbp)
	movq	%fs:40, %rax
	movq	%rax, -24(%rbp)
	xorl	%eax, %eax
	movq	-80(%rbp), %rdx
	leaq	-64(%rbp), %rax
	movq	%rdx, %rsi
	movq	%rax, %rdi
.LEHB34:
	call	_ZZ5enterNSt7__cxx1112basic_stringIcSt11char_traitsIcESaIcEEEENUl4infoE_C1ERKS6_
.LEHE34:
	leaq	-64(%rbp), %rdx
	movq	-72(%rbp), %rax
	movq	%rdx, %rsi
	movq	%rax, %rdi
.LEHB35:
	call	_ZN9__gnu_cxx5__ops10_Iter_predIZ5enterNSt7__cxx1112basic_stringIcSt11char_traitsIcESaIcEEEEUl4infoE_EC1ES9_
.LEHE35:
	leaq	-64(%rbp), %rax
	movq	%rax, %rdi
	call	_ZZ5enterNSt7__cxx1112basic_stringIcSt11char_traitsIcESaIcEEEENUl4infoE_D1Ev
	movq	-72(%rbp), %rax
	movq	-24(%rbp), %rcx
	xorq	%fs:40, %rcx
	je	.L130
	jmp	.L132
.L131:
	movq	%rax, %rbx
	leaq	-64(%rbp), %rax
	movq	%rax, %rdi
	call	_ZZ5enterNSt7__cxx1112basic_stringIcSt11char_traitsIcESaIcEEEENUl4infoE_D1Ev
	movq	%rbx, %rax
	movq	%rax, %rdi
.LEHB36:
	call	_Unwind_Resume
.LEHE36:
.L132:
	call	__stack_chk_fail
.L130:
	addq	$72, %rsp
	popq	%rbx
	popq	%rbp
	.cfi_def_cfa 7, 8
	ret
	.cfi_endproc
.LFE7158:
	.section	.gcc_except_table
.LLSDA7158:
	.byte	0xff
	.byte	0xff
	.byte	0x1
	.uleb128 .LLSDACSE7158-.LLSDACSB7158
.LLSDACSB7158:
	.uleb128 .LEHB34-.LFB7158
	.uleb128 .LEHE34-.LEHB34
	.uleb128 0
	.uleb128 0
	.uleb128 .LEHB35-.LFB7158
	.uleb128 .LEHE35-.LEHB35
	.uleb128 .L131-.LFB7158
	.uleb128 0
	.uleb128 .LEHB36-.LFB7158
	.uleb128 .LEHE36-.LEHB36
	.uleb128 0
	.uleb128 0
.LLSDACSE7158:
	.text
	.size	_ZN9__gnu_cxx5__ops11__pred_iterIZ5enterNSt7__cxx1112basic_stringIcSt11char_traitsIcESaIcEEEEUl4infoE_EENS0_10_Iter_predIT_EESB_, .-_ZN9__gnu_cxx5__ops11__pred_iterIZ5enterNSt7__cxx1112basic_stringIcSt11char_traitsIcESaIcEEEEUl4infoE_EENS0_10_Iter_predIT_EESB_
	.align 2
	.type	_ZN9__gnu_cxx5__ops10_Iter_predIZ5enterNSt7__cxx1112basic_stringIcSt11char_traitsIcESaIcEEEEUl4infoE_EC2ERKSA_, @function
_ZN9__gnu_cxx5__ops10_Iter_predIZ5enterNSt7__cxx1112basic_stringIcSt11char_traitsIcESaIcEEEEUl4infoE_EC2ERKSA_:
.LFB7161:
	.cfi_startproc
	pushq	%rbp
	.cfi_def_cfa_offset 16
	.cfi_offset 6, -16
	movq	%rsp, %rbp
	.cfi_def_cfa_register 6
	subq	$16, %rsp
	movq	%rdi, -8(%rbp)
	movq	%rsi, -16(%rbp)
	movq	-16(%rbp), %rdx
	movq	-8(%rbp), %rax
	movq	%rdx, %rsi
	movq	%rax, %rdi
	call	_ZZ5enterNSt7__cxx1112basic_stringIcSt11char_traitsIcESaIcEEEENUl4infoE_C1ERKS6_
	nop
	leave
	.cfi_def_cfa 7, 8
	ret
	.cfi_endproc
.LFE7161:
	.size	_ZN9__gnu_cxx5__ops10_Iter_predIZ5enterNSt7__cxx1112basic_stringIcSt11char_traitsIcESaIcEEEEUl4infoE_EC2ERKSA_, .-_ZN9__gnu_cxx5__ops10_Iter_predIZ5enterNSt7__cxx1112basic_stringIcSt11char_traitsIcESaIcEEEEUl4infoE_EC2ERKSA_
	.set	_ZN9__gnu_cxx5__ops10_Iter_predIZ5enterNSt7__cxx1112basic_stringIcSt11char_traitsIcESaIcEEEEUl4infoE_EC1ERKSA_,_ZN9__gnu_cxx5__ops10_Iter_predIZ5enterNSt7__cxx1112basic_stringIcSt11char_traitsIcESaIcEEEEUl4infoE_EC2ERKSA_
	.type	_ZSt9__find_ifIN9__gnu_cxx17__normal_iteratorIP4infoSt6vectorIS2_SaIS2_EEEENS0_5__ops10_Iter_predIZ5enterNSt7__cxx1112basic_stringIcSt11char_traitsIcESaIcEEEEUlS2_E_EEET_SI_SI_T0_, @function
_ZSt9__find_ifIN9__gnu_cxx17__normal_iteratorIP4infoSt6vectorIS2_SaIS2_EEEENS0_5__ops10_Iter_predIZ5enterNSt7__cxx1112basic_stringIcSt11char_traitsIcESaIcEEEEUlS2_E_EEET_SI_SI_T0_:
.LFB7159:
	.cfi_startproc
	.cfi_personality 0x3,__gxx_personality_v0
	.cfi_lsda 0x3,.LLSDA7159
	pushq	%rbp
	.cfi_def_cfa_offset 16
	.cfi_offset 6, -16
	movq	%rsp, %rbp
	.cfi_def_cfa_register 6
	pushq	%rbx
	subq	$104, %rsp
	.cfi_offset 3, -24
	movq	%rdi, -96(%rbp)
	movq	%rsi, -112(%rbp)
	movq	%rdx, -104(%rbp)
	movq	%fs:40, %rax
	movq	%rax, -24(%rbp)
	xorl	%eax, %eax
	leaq	-96(%rbp), %rax
	movq	%rax, %rdi
	call	_ZSt19__iterator_categoryIN9__gnu_cxx17__normal_iteratorIP4infoSt6vectorIS2_SaIS2_EEEEENSt15iterator_traitsIT_E17iterator_categoryERKS9_
	movq	-104(%rbp), %rdx
	leaq	-64(%rbp), %rax
	movq	%rdx, %rsi
	movq	%rax, %rdi
.LEHB37:
	call	_ZN9__gnu_cxx5__ops10_Iter_predIZ5enterNSt7__cxx1112basic_stringIcSt11char_traitsIcESaIcEEEEUl4infoE_EC1ERKSA_
.LEHE37:
	leaq	-64(%rbp), %rdx
	movq	-112(%rbp), %rcx
	movq	-96(%rbp), %rax
	subq	$8, %rsp
	pushq	%rbx
	movq	%rcx, %rsi
	movq	%rax, %rdi
.LEHB38:
	.cfi_escape 0x2e,0x10
	call	_ZSt9__find_ifIN9__gnu_cxx17__normal_iteratorIP4infoSt6vectorIS2_SaIS2_EEEENS0_5__ops10_Iter_predIZ5enterNSt7__cxx1112basic_stringIcSt11char_traitsIcESaIcEEEEUlS2_E_EEET_SI_SI_T0_St26random_access_iterator_tag
.LEHE38:
	addq	$16, %rsp
	movq	%rax, %rbx
	leaq	-64(%rbp), %rax
	movq	%rax, %rdi
	call	_ZN9__gnu_cxx5__ops10_Iter_predIZ5enterNSt7__cxx1112basic_stringIcSt11char_traitsIcESaIcEEEEUl4infoE_ED1Ev
	movq	%rbx, %rax
	movq	-24(%rbp), %rcx
	xorq	%fs:40, %rcx
	je	.L137
	jmp	.L139
.L138:
	movq	%rax, %rbx
	leaq	-64(%rbp), %rax
	movq	%rax, %rdi
	call	_ZN9__gnu_cxx5__ops10_Iter_predIZ5enterNSt7__cxx1112basic_stringIcSt11char_traitsIcESaIcEEEEUl4infoE_ED1Ev
	movq	%rbx, %rax
	movq	%rax, %rdi
.LEHB39:
	call	_Unwind_Resume
.LEHE39:
.L139:
	call	__stack_chk_fail
.L137:
	movq	-8(%rbp), %rbx
	leave
	.cfi_def_cfa 7, 8
	ret
	.cfi_endproc
.LFE7159:
	.section	.gcc_except_table
.LLSDA7159:
	.byte	0xff
	.byte	0xff
	.byte	0x1
	.uleb128 .LLSDACSE7159-.LLSDACSB7159
.LLSDACSB7159:
	.uleb128 .LEHB37-.LFB7159
	.uleb128 .LEHE37-.LEHB37
	.uleb128 0
	.uleb128 0
	.uleb128 .LEHB38-.LFB7159
	.uleb128 .LEHE38-.LEHB38
	.uleb128 .L138-.LFB7159
	.uleb128 0
	.uleb128 .LEHB39-.LFB7159
	.uleb128 .LEHE39-.LEHB39
	.uleb128 0
	.uleb128 0
.LLSDACSE7159:
	.text
	.size	_ZSt9__find_ifIN9__gnu_cxx17__normal_iteratorIP4infoSt6vectorIS2_SaIS2_EEEENS0_5__ops10_Iter_predIZ5enterNSt7__cxx1112basic_stringIcSt11char_traitsIcESaIcEEEEUlS2_E_EEET_SI_SI_T0_, .-_ZSt9__find_ifIN9__gnu_cxx17__normal_iteratorIP4infoSt6vectorIS2_SaIS2_EEEENS0_5__ops10_Iter_predIZ5enterNSt7__cxx1112basic_stringIcSt11char_traitsIcESaIcEEEEUlS2_E_EEET_SI_SI_T0_
	.section	.text._ZNK9__gnu_cxx17__normal_iteratorIP4infoSt6vectorIS1_SaIS1_EEE4baseEv,"axG",@progbits,_ZNK9__gnu_cxx17__normal_iteratorIP4infoSt6vectorIS1_SaIS1_EEE4baseEv,comdat
	.align 2
	.weak	_ZNK9__gnu_cxx17__normal_iteratorIP4infoSt6vectorIS1_SaIS1_EEE4baseEv
	.type	_ZNK9__gnu_cxx17__normal_iteratorIP4infoSt6vectorIS1_SaIS1_EEE4baseEv, @function
_ZNK9__gnu_cxx17__normal_iteratorIP4infoSt6vectorIS1_SaIS1_EEE4baseEv:
.LFB7163:
	.cfi_startproc
	pushq	%rbp
	.cfi_def_cfa_offset 16
	.cfi_offset 6, -16
	movq	%rsp, %rbp
	.cfi_def_cfa_register 6
	movq	%rdi, -8(%rbp)
	movq	-8(%rbp), %rax
	popq	%rbp
	.cfi_def_cfa 7, 8
	ret
	.cfi_endproc
.LFE7163:
	.size	_ZNK9__gnu_cxx17__normal_iteratorIP4infoSt6vectorIS1_SaIS1_EEE4baseEv, .-_ZNK9__gnu_cxx17__normal_iteratorIP4infoSt6vectorIS1_SaIS1_EEE4baseEv
	.section	.text._ZSt7forwardIRK4infoEOT_RNSt16remove_referenceIS3_E4typeE,"axG",@progbits,_ZSt7forwardIRK4infoEOT_RNSt16remove_referenceIS3_E4typeE,comdat
	.weak	_ZSt7forwardIRK4infoEOT_RNSt16remove_referenceIS3_E4typeE
	.type	_ZSt7forwardIRK4infoEOT_RNSt16remove_referenceIS3_E4typeE, @function
_ZSt7forwardIRK4infoEOT_RNSt16remove_referenceIS3_E4typeE:
.LFB7166:
	.cfi_startproc
	pushq	%rbp
	.cfi_def_cfa_offset 16
	.cfi_offset 6, -16
	movq	%rsp, %rbp
	.cfi_def_cfa_register 6
	movq	%rdi, -8(%rbp)
	movq	-8(%rbp), %rax
	popq	%rbp
	.cfi_def_cfa 7, 8
	ret
	.cfi_endproc
.LFE7166:
	.size	_ZSt7forwardIRK4infoEOT_RNSt16remove_referenceIS3_E4typeE, .-_ZSt7forwardIRK4infoEOT_RNSt16remove_referenceIS3_E4typeE
	.section	.text._ZNSt16allocator_traitsISaI4infoEE9constructIS0_JRKS0_EEEvRS1_PT_DpOT0_,"axG",@progbits,_ZNSt16allocator_traitsISaI4infoEE9constructIS0_JRKS0_EEEvRS1_PT_DpOT0_,comdat
	.weak	_ZNSt16allocator_traitsISaI4infoEE9constructIS0_JRKS0_EEEvRS1_PT_DpOT0_
	.type	_ZNSt16allocator_traitsISaI4infoEE9constructIS0_JRKS0_EEEvRS1_PT_DpOT0_, @function
_ZNSt16allocator_traitsISaI4infoEE9constructIS0_JRKS0_EEEvRS1_PT_DpOT0_:
.LFB7165:
	.cfi_startproc
	pushq	%rbp
	.cfi_def_cfa_offset 16
	.cfi_offset 6, -16
	movq	%rsp, %rbp
	.cfi_def_cfa_register 6
	subq	$32, %rsp
	movq	%rdi, -8(%rbp)
	movq	%rsi, -16(%rbp)
	movq	%rdx, -24(%rbp)
	movq	-24(%rbp), %rax
	movq	%rax, %rdi
	call	_ZSt7forwardIRK4infoEOT_RNSt16remove_referenceIS3_E4typeE
	movq	%rax, %rdx
	movq	-16(%rbp), %rcx
	movq	-8(%rbp), %rax
	movq	%rcx, %rsi
	movq	%rax, %rdi
	call	_ZN9__gnu_cxx13new_allocatorI4infoE9constructIS1_JRKS1_EEEvPT_DpOT0_
	nop
	leave
	.cfi_def_cfa 7, 8
	ret
	.cfi_endproc
.LFE7165:
	.size	_ZNSt16allocator_traitsISaI4infoEE9constructIS0_JRKS0_EEEvRS1_PT_DpOT0_, .-_ZNSt16allocator_traitsISaI4infoEE9constructIS0_JRKS0_EEEvRS1_PT_DpOT0_
	.weak	_ZNSt16allocator_traitsISaI4infoEE9constructIS0_IRKS0_EEEvRS1_PT_DpOT0_
	.set	_ZNSt16allocator_traitsISaI4infoEE9constructIS0_IRKS0_EEEvRS1_PT_DpOT0_,_ZNSt16allocator_traitsISaI4infoEE9constructIS0_JRKS0_EEEvRS1_PT_DpOT0_
	.section	.rodata
.LC9:
	.string	"vector::_M_emplace_back_aux"
	.section	.text._ZNSt6vectorI4infoSaIS0_EE19_M_emplace_back_auxIJRKS0_EEEvDpOT_,"axG",@progbits,_ZNSt6vectorI4infoSaIS0_EE19_M_emplace_back_auxIJRKS0_EEEvDpOT_,comdat
	.align 2
	.weak	_ZNSt6vectorI4infoSaIS0_EE19_M_emplace_back_auxIJRKS0_EEEvDpOT_
	.type	_ZNSt6vectorI4infoSaIS0_EE19_M_emplace_back_auxIJRKS0_EEEvDpOT_, @function
_ZNSt6vectorI4infoSaIS0_EE19_M_emplace_back_auxIJRKS0_EEEvDpOT_:
.LFB7167:
	.cfi_startproc
	.cfi_personality 0x3,__gxx_personality_v0
	.cfi_lsda 0x3,.LLSDA7167
	pushq	%rbp
	.cfi_def_cfa_offset 16
	.cfi_offset 6, -16
	movq	%rsp, %rbp
	.cfi_def_cfa_register 6
	pushq	%rbx
	subq	$56, %rsp
	.cfi_offset 3, -24
	movq	%rdi, -56(%rbp)
	movq	%rsi, -64(%rbp)
	movq	-56(%rbp), %rax
	movl	$.LC9, %edx
	movl	$1, %esi
	movq	%rax, %rdi
.LEHB40:
	call	_ZNKSt6vectorI4infoSaIS0_EE12_M_check_lenEmPKc
	movq	%rax, -32(%rbp)
	movq	-56(%rbp), %rax
	movq	-32(%rbp), %rdx
	movq	%rdx, %rsi
	movq	%rax, %rdi
	call	_ZNSt12_Vector_baseI4infoSaIS0_EE11_M_allocateEm
.LEHE40:
	movq	%rax, -24(%rbp)
	movq	-24(%rbp), %rax
	movq	%rax, -40(%rbp)
	movq	-64(%rbp), %rax
	movq	%rax, %rdi
	call	_ZSt7forwardIRK4infoEOT_RNSt16remove_referenceIS3_E4typeE
	movq	%rax, %rbx
	movq	-56(%rbp), %rax
	movq	%rax, %rdi
	call	_ZNKSt6vectorI4infoSaIS0_EE4sizeEv
	movq	%rax, %rdx
	movq	%rdx, %rax
	salq	$3, %rax
	addq	%rdx, %rax
	salq	$3, %rax
	movq	%rax, %rdx
	movq	-24(%rbp), %rax
	leaq	(%rdx,%rax), %rcx
	movq	-56(%rbp), %rax
	movq	%rbx, %rdx
	movq	%rcx, %rsi
	movq	%rax, %rdi
.LEHB41:
	call	_ZNSt16allocator_traitsISaI4infoEE9constructIS0_JRKS0_EEEvRS1_PT_DpOT0_
	movq	$0, -40(%rbp)
	movq	-56(%rbp), %rax
	movq	%rax, %rdi
	call	_ZNSt12_Vector_baseI4infoSaIS0_EE19_M_get_Tp_allocatorEv
	movq	%rax, %rcx
	movq	-56(%rbp), %rax
	movq	8(%rax), %rsi
	movq	-56(%rbp), %rax
	movq	(%rax), %rax
	movq	-24(%rbp), %rdx
	movq	%rax, %rdi
	call	_ZSt34__uninitialized_move_if_noexcept_aIP4infoS1_SaIS0_EET0_T_S4_S3_RT1_
.LEHE41:
	movq	%rax, -40(%rbp)
	addq	$72, -40(%rbp)
	movq	-56(%rbp), %rax
	movq	%rax, %rdi
	call	_ZNSt12_Vector_baseI4infoSaIS0_EE19_M_get_Tp_allocatorEv
	movq	%rax, %rdx
	movq	-56(%rbp), %rax
	movq	8(%rax), %rcx
	movq	-56(%rbp), %rax
	movq	(%rax), %rax
	movq	%rcx, %rsi
	movq	%rax, %rdi
.LEHB42:
	call	_ZSt8_DestroyIP4infoS0_EvT_S2_RSaIT0_E
	movq	-56(%rbp), %rax
	movq	16(%rax), %rax
	movq	%rax, %rdx
	movq	-56(%rbp), %rax
	movq	(%rax), %rax
	subq	%rax, %rdx
	movq	%rdx, %rax
	sarq	$3, %rax
	movq	%rax, %rdx
	movabsq	$-8198552921648689607, %rax
	imulq	%rdx, %rax
	movq	%rax, %rdx
	movq	-56(%rbp), %rax
	movq	(%rax), %rcx
	movq	-56(%rbp), %rax
	movq	%rcx, %rsi
	movq	%rax, %rdi
	call	_ZNSt12_Vector_baseI4infoSaIS0_EE13_M_deallocateEPS0_m
.LEHE42:
	movq	-56(%rbp), %rax
	movq	-24(%rbp), %rdx
	movq	%rdx, (%rax)
	movq	-56(%rbp), %rax
	movq	-40(%rbp), %rdx
	movq	%rdx, 8(%rax)
	movq	-32(%rbp), %rdx
	movq	%rdx, %rax
	salq	$3, %rax
	addq	%rdx, %rax
	salq	$3, %rax
	movq	%rax, %rdx
	movq	-24(%rbp), %rax
	addq	%rax, %rdx
	movq	-56(%rbp), %rax
	movq	%rdx, 16(%rax)
	jmp	.L152
.L150:
	movq	%rax, %rdi
	call	__cxa_begin_catch
	cmpq	$0, -40(%rbp)
	jne	.L147
	movq	-56(%rbp), %rax
	movq	%rax, %rdi
	call	_ZNKSt6vectorI4infoSaIS0_EE4sizeEv
	movq	%rax, %rdx
	movq	%rdx, %rax
	salq	$3, %rax
	addq	%rdx, %rax
	salq	$3, %rax
	movq	%rax, %rdx
	movq	-24(%rbp), %rax
	addq	%rax, %rdx
	movq	-56(%rbp), %rax
	movq	%rdx, %rsi
	movq	%rax, %rdi
.LEHB43:
	call	_ZNSt16allocator_traitsISaI4infoEE7destroyIS0_EEvRS1_PT_
	jmp	.L148
.L147:
	movq	-56(%rbp), %rax
	movq	%rax, %rdi
	call	_ZNSt12_Vector_baseI4infoSaIS0_EE19_M_get_Tp_allocatorEv
	movq	%rax, %rdx
	movq	-40(%rbp), %rcx
	movq	-24(%rbp), %rax
	movq	%rcx, %rsi
	movq	%rax, %rdi
	call	_ZSt8_DestroyIP4infoS0_EvT_S2_RSaIT0_E
.L148:
	movq	-56(%rbp), %rax
	movq	-32(%rbp), %rdx
	movq	-24(%rbp), %rcx
	movq	%rcx, %rsi
	movq	%rax, %rdi
	call	_ZNSt12_Vector_baseI4infoSaIS0_EE13_M_deallocateEPS0_m
	call	__cxa_rethrow
.LEHE43:
.L151:
	movq	%rax, %rbx
	call	__cxa_end_catch
	movq	%rbx, %rax
	movq	%rax, %rdi
.LEHB44:
	call	_Unwind_Resume
.LEHE44:
.L152:
	addq	$56, %rsp
	popq	%rbx
	popq	%rbp
	.cfi_def_cfa 7, 8
	ret
	.cfi_endproc
.LFE7167:
	.section	.gcc_except_table
	.align 4
.LLSDA7167:
	.byte	0xff
	.byte	0x3
	.uleb128 .LLSDATT7167-.LLSDATTD7167
.LLSDATTD7167:
	.byte	0x1
	.uleb128 .LLSDACSE7167-.LLSDACSB7167
.LLSDACSB7167:
	.uleb128 .LEHB40-.LFB7167
	.uleb128 .LEHE40-.LEHB40
	.uleb128 0
	.uleb128 0
	.uleb128 .LEHB41-.LFB7167
	.uleb128 .LEHE41-.LEHB41
	.uleb128 .L150-.LFB7167
	.uleb128 0x1
	.uleb128 .LEHB42-.LFB7167
	.uleb128 .LEHE42-.LEHB42
	.uleb128 0
	.uleb128 0
	.uleb128 .LEHB43-.LFB7167
	.uleb128 .LEHE43-.LEHB43
	.uleb128 .L151-.LFB7167
	.uleb128 0
	.uleb128 .LEHB44-.LFB7167
	.uleb128 .LEHE44-.LEHB44
	.uleb128 0
	.uleb128 0
.LLSDACSE7167:
	.byte	0x1
	.byte	0
	.align 4
	.long	0

.LLSDATT7167:
	.section	.text._ZNSt6vectorI4infoSaIS0_EE19_M_emplace_back_auxIJRKS0_EEEvDpOT_,"axG",@progbits,_ZNSt6vectorI4infoSaIS0_EE19_M_emplace_back_auxIJRKS0_EEEvDpOT_,comdat
	.size	_ZNSt6vectorI4infoSaIS0_EE19_M_emplace_back_auxIJRKS0_EEEvDpOT_, .-_ZNSt6vectorI4infoSaIS0_EE19_M_emplace_back_auxIJRKS0_EEEvDpOT_
	.weak	_ZNSt6vectorI4infoSaIS0_EE19_M_emplace_back_auxIIRKS0_EEEvDpOT_
	.set	_ZNSt6vectorI4infoSaIS0_EE19_M_emplace_back_auxIIRKS0_EEEvDpOT_,_ZNSt6vectorI4infoSaIS0_EE19_M_emplace_back_auxIJRKS0_EEEvDpOT_
	.text
	.type	_ZN9__gnu_cxx5__ops11__pred_iterIZ4mainEUl4infoE_EENS0_10_Iter_predIT_EES5_, @function
_ZN9__gnu_cxx5__ops11__pred_iterIZ4mainEUl4infoE_EENS0_10_Iter_predIT_EES5_:
.LFB7195:
	.cfi_startproc
	.cfi_personality 0x3,__gxx_personality_v0
	.cfi_lsda 0x3,.LLSDA7195
	pushq	%rbp
	.cfi_def_cfa_offset 16
	.cfi_offset 6, -16
	movq	%rsp, %rbp
	.cfi_def_cfa_register 6
	pushq	%rbx
	subq	$72, %rsp
	.cfi_offset 3, -24
	movq	%rdi, -72(%rbp)
	movq	%rsi, -80(%rbp)
	movq	%fs:40, %rax
	movq	%rax, -24(%rbp)
	xorl	%eax, %eax
	movq	-80(%rbp), %rdx
	leaq	-64(%rbp), %rax
	movq	%rdx, %rsi
	movq	%rax, %rdi
.LEHB45:
	call	_ZZ4mainENUl4infoE_C1ERKS0_
.LEHE45:
	leaq	-64(%rbp), %rdx
	movq	-72(%rbp), %rax
	movq	%rdx, %rsi
	movq	%rax, %rdi
.LEHB46:
	call	_ZN9__gnu_cxx5__ops10_Iter_predIZ4mainEUl4infoE_EC1ES3_
.LEHE46:
	leaq	-64(%rbp), %rax
	movq	%rax, %rdi
	call	_ZZ4mainENUl4infoE_D1Ev
	movq	-72(%rbp), %rax
	movq	-24(%rbp), %rcx
	xorq	%fs:40, %rcx
	je	.L156
	jmp	.L158
.L157:
	movq	%rax, %rbx
	leaq	-64(%rbp), %rax
	movq	%rax, %rdi
	call	_ZZ4mainENUl4infoE_D1Ev
	movq	%rbx, %rax
	movq	%rax, %rdi
.LEHB47:
	call	_Unwind_Resume
.LEHE47:
.L158:
	call	__stack_chk_fail
.L156:
	addq	$72, %rsp
	popq	%rbx
	popq	%rbp
	.cfi_def_cfa 7, 8
	ret
	.cfi_endproc
.LFE7195:
	.section	.gcc_except_table
.LLSDA7195:
	.byte	0xff
	.byte	0xff
	.byte	0x1
	.uleb128 .LLSDACSE7195-.LLSDACSB7195
.LLSDACSB7195:
	.uleb128 .LEHB45-.LFB7195
	.uleb128 .LEHE45-.LEHB45
	.uleb128 0
	.uleb128 0
	.uleb128 .LEHB46-.LFB7195
	.uleb128 .LEHE46-.LEHB46
	.uleb128 .L157-.LFB7195
	.uleb128 0
	.uleb128 .LEHB47-.LFB7195
	.uleb128 .LEHE47-.LEHB47
	.uleb128 0
	.uleb128 0
.LLSDACSE7195:
	.text
	.size	_ZN9__gnu_cxx5__ops11__pred_iterIZ4mainEUl4infoE_EENS0_10_Iter_predIT_EES5_, .-_ZN9__gnu_cxx5__ops11__pred_iterIZ4mainEUl4infoE_EENS0_10_Iter_predIT_EES5_
	.align 2
	.type	_ZN9__gnu_cxx5__ops10_Iter_predIZ4mainEUl4infoE_EC2ERKS4_, @function
_ZN9__gnu_cxx5__ops10_Iter_predIZ4mainEUl4infoE_EC2ERKS4_:
.LFB7198:
	.cfi_startproc
	pushq	%rbp
	.cfi_def_cfa_offset 16
	.cfi_offset 6, -16
	movq	%rsp, %rbp
	.cfi_def_cfa_register 6
	subq	$16, %rsp
	movq	%rdi, -8(%rbp)
	movq	%rsi, -16(%rbp)
	movq	-16(%rbp), %rdx
	movq	-8(%rbp), %rax
	movq	%rdx, %rsi
	movq	%rax, %rdi
	call	_ZZ4mainENUl4infoE_C1ERKS0_
	nop
	leave
	.cfi_def_cfa 7, 8
	ret
	.cfi_endproc
.LFE7198:
	.size	_ZN9__gnu_cxx5__ops10_Iter_predIZ4mainEUl4infoE_EC2ERKS4_, .-_ZN9__gnu_cxx5__ops10_Iter_predIZ4mainEUl4infoE_EC2ERKS4_
	.set	_ZN9__gnu_cxx5__ops10_Iter_predIZ4mainEUl4infoE_EC1ERKS4_,_ZN9__gnu_cxx5__ops10_Iter_predIZ4mainEUl4infoE_EC2ERKS4_
	.type	_ZSt9__find_ifIN9__gnu_cxx17__normal_iteratorIP4infoSt6vectorIS2_SaIS2_EEEENS0_5__ops10_Iter_predIZ4mainEUlS2_E_EEET_SC_SC_T0_, @function
_ZSt9__find_ifIN9__gnu_cxx17__normal_iteratorIP4infoSt6vectorIS2_SaIS2_EEEENS0_5__ops10_Iter_predIZ4mainEUlS2_E_EEET_SC_SC_T0_:
.LFB7196:
	.cfi_startproc
	.cfi_personality 0x3,__gxx_personality_v0
	.cfi_lsda 0x3,.LLSDA7196
	pushq	%rbp
	.cfi_def_cfa_offset 16
	.cfi_offset 6, -16
	movq	%rsp, %rbp
	.cfi_def_cfa_register 6
	pushq	%rbx
	subq	$104, %rsp
	.cfi_offset 3, -24
	movq	%rdi, -96(%rbp)
	movq	%rsi, -112(%rbp)
	movq	%rdx, -104(%rbp)
	movq	%fs:40, %rax
	movq	%rax, -24(%rbp)
	xorl	%eax, %eax
	leaq	-96(%rbp), %rax
	movq	%rax, %rdi
	call	_ZSt19__iterator_categoryIN9__gnu_cxx17__normal_iteratorIP4infoSt6vectorIS2_SaIS2_EEEEENSt15iterator_traitsIT_E17iterator_categoryERKS9_
	movq	-104(%rbp), %rdx
	leaq	-64(%rbp), %rax
	movq	%rdx, %rsi
	movq	%rax, %rdi
.LEHB48:
	call	_ZN9__gnu_cxx5__ops10_Iter_predIZ4mainEUl4infoE_EC1ERKS4_
.LEHE48:
	leaq	-64(%rbp), %rdx
	movq	-112(%rbp), %rcx
	movq	-96(%rbp), %rax
	subq	$8, %rsp
	pushq	%rbx
	movq	%rcx, %rsi
	movq	%rax, %rdi
.LEHB49:
	.cfi_escape 0x2e,0x10
	call	_ZSt9__find_ifIN9__gnu_cxx17__normal_iteratorIP4infoSt6vectorIS2_SaIS2_EEEENS0_5__ops10_Iter_predIZ4mainEUlS2_E_EEET_SC_SC_T0_St26random_access_iterator_tag
.LEHE49:
	addq	$16, %rsp
	movq	%rax, %rbx
	leaq	-64(%rbp), %rax
	movq	%rax, %rdi
	call	_ZN9__gnu_cxx5__ops10_Iter_predIZ4mainEUl4infoE_ED1Ev
	movq	%rbx, %rax
	movq	-24(%rbp), %rcx
	xorq	%fs:40, %rcx
	je	.L163
	jmp	.L165
.L164:
	movq	%rax, %rbx
	leaq	-64(%rbp), %rax
	movq	%rax, %rdi
	call	_ZN9__gnu_cxx5__ops10_Iter_predIZ4mainEUl4infoE_ED1Ev
	movq	%rbx, %rax
	movq	%rax, %rdi
.LEHB50:
	call	_Unwind_Resume
.LEHE50:
.L165:
	call	__stack_chk_fail
.L163:
	movq	-8(%rbp), %rbx
	leave
	.cfi_def_cfa 7, 8
	ret
	.cfi_endproc
.LFE7196:
	.section	.gcc_except_table
.LLSDA7196:
	.byte	0xff
	.byte	0xff
	.byte	0x1
	.uleb128 .LLSDACSE7196-.LLSDACSB7196
.LLSDACSB7196:
	.uleb128 .LEHB48-.LFB7196
	.uleb128 .LEHE48-.LEHB48
	.uleb128 0
	.uleb128 0
	.uleb128 .LEHB49-.LFB7196
	.uleb128 .LEHE49-.LEHB49
	.uleb128 .L164-.LFB7196
	.uleb128 0
	.uleb128 .LEHB50-.LFB7196
	.uleb128 .LEHE50-.LEHB50
	.uleb128 0
	.uleb128 0
.LLSDACSE7196:
	.text
	.size	_ZSt9__find_ifIN9__gnu_cxx17__normal_iteratorIP4infoSt6vectorIS2_SaIS2_EEEENS0_5__ops10_Iter_predIZ4mainEUlS2_E_EEET_SC_SC_T0_, .-_ZSt9__find_ifIN9__gnu_cxx17__normal_iteratorIP4infoSt6vectorIS2_SaIS2_EEEENS0_5__ops10_Iter_predIZ4mainEUlS2_E_EEET_SC_SC_T0_
	.section	.text._ZN9__gnu_cxxneIP4infoSt6vectorIS1_SaIS1_EEEEbRKNS_17__normal_iteratorIT_T0_EESB_,"axG",@progbits,_ZN9__gnu_cxxneIP4infoSt6vectorIS1_SaIS1_EEEEbRKNS_17__normal_iteratorIT_T0_EESB_,comdat
	.weak	_ZN9__gnu_cxxneIP4infoSt6vectorIS1_SaIS1_EEEEbRKNS_17__normal_iteratorIT_T0_EESB_
	.type	_ZN9__gnu_cxxneIP4infoSt6vectorIS1_SaIS1_EEEEbRKNS_17__normal_iteratorIT_T0_EESB_, @function
_ZN9__gnu_cxxneIP4infoSt6vectorIS1_SaIS1_EEEEbRKNS_17__normal_iteratorIT_T0_EESB_:
.LFB7200:
	.cfi_startproc
	pushq	%rbp
	.cfi_def_cfa_offset 16
	.cfi_offset 6, -16
	movq	%rsp, %rbp
	.cfi_def_cfa_register 6
	pushq	%rbx
	subq	$24, %rsp
	.cfi_offset 3, -24
	movq	%rdi, -24(%rbp)
	movq	%rsi, -32(%rbp)
	movq	-24(%rbp), %rax
	movq	%rax, %rdi
	call	_ZNK9__gnu_cxx17__normal_iteratorIP4infoSt6vectorIS1_SaIS1_EEE4baseEv
	movq	(%rax), %rbx
	movq	-32(%rbp), %rax
	movq	%rax, %rdi
	call	_ZNK9__gnu_cxx17__normal_iteratorIP4infoSt6vectorIS1_SaIS1_EEE4baseEv
	movq	(%rax), %rax
	cmpq	%rax, %rbx
	setne	%al
	addq	$24, %rsp
	popq	%rbx
	popq	%rbp
	.cfi_def_cfa 7, 8
	ret
	.cfi_endproc
.LFE7200:
	.size	_ZN9__gnu_cxxneIP4infoSt6vectorIS1_SaIS1_EEEEbRKNS_17__normal_iteratorIT_T0_EESB_, .-_ZN9__gnu_cxxneIP4infoSt6vectorIS1_SaIS1_EEEEbRKNS_17__normal_iteratorIT_T0_EESB_
	.section	.text._ZN9__gnu_cxx17__normal_iteratorIP4infoSt6vectorIS1_SaIS1_EEEppEv,"axG",@progbits,_ZN9__gnu_cxx17__normal_iteratorIP4infoSt6vectorIS1_SaIS1_EEEppEv,comdat
	.align 2
	.weak	_ZN9__gnu_cxx17__normal_iteratorIP4infoSt6vectorIS1_SaIS1_EEEppEv
	.type	_ZN9__gnu_cxx17__normal_iteratorIP4infoSt6vectorIS1_SaIS1_EEEppEv, @function
_ZN9__gnu_cxx17__normal_iteratorIP4infoSt6vectorIS1_SaIS1_EEEppEv:
.LFB7201:
	.cfi_startproc
	pushq	%rbp
	.cfi_def_cfa_offset 16
	.cfi_offset 6, -16
	movq	%rsp, %rbp
	.cfi_def_cfa_register 6
	movq	%rdi, -8(%rbp)
	movq	-8(%rbp), %rax
	movq	(%rax), %rax
	leaq	72(%rax), %rdx
	movq	-8(%rbp), %rax
	movq	%rdx, (%rax)
	movq	-8(%rbp), %rax
	popq	%rbp
	.cfi_def_cfa 7, 8
	ret
	.cfi_endproc
.LFE7201:
	.size	_ZN9__gnu_cxx17__normal_iteratorIP4infoSt6vectorIS1_SaIS1_EEEppEv, .-_ZN9__gnu_cxx17__normal_iteratorIP4infoSt6vectorIS1_SaIS1_EEEppEv
	.section	.text._ZNK9__gnu_cxx17__normal_iteratorIP4infoSt6vectorIS1_SaIS1_EEEdeEv,"axG",@progbits,_ZNK9__gnu_cxx17__normal_iteratorIP4infoSt6vectorIS1_SaIS1_EEEdeEv,comdat
	.align 2
	.weak	_ZNK9__gnu_cxx17__normal_iteratorIP4infoSt6vectorIS1_SaIS1_EEEdeEv
	.type	_ZNK9__gnu_cxx17__normal_iteratorIP4infoSt6vectorIS1_SaIS1_EEEdeEv, @function
_ZNK9__gnu_cxx17__normal_iteratorIP4infoSt6vectorIS1_SaIS1_EEEdeEv:
.LFB7202:
	.cfi_startproc
	pushq	%rbp
	.cfi_def_cfa_offset 16
	.cfi_offset 6, -16
	movq	%rsp, %rbp
	.cfi_def_cfa_register 6
	movq	%rdi, -8(%rbp)
	movq	-8(%rbp), %rax
	movq	(%rax), %rax
	popq	%rbp
	.cfi_def_cfa 7, 8
	ret
	.cfi_endproc
.LFE7202:
	.size	_ZNK9__gnu_cxx17__normal_iteratorIP4infoSt6vectorIS1_SaIS1_EEEdeEv, .-_ZNK9__gnu_cxx17__normal_iteratorIP4infoSt6vectorIS1_SaIS1_EEEdeEv
	.section	.text._ZNSt12_Vector_baseI4infoSaIS0_EE12_Vector_implC2Ev,"axG",@progbits,_ZNSt12_Vector_baseI4infoSaIS0_EE12_Vector_implC5Ev,comdat
	.align 2
	.weak	_ZNSt12_Vector_baseI4infoSaIS0_EE12_Vector_implC2Ev
	.type	_ZNSt12_Vector_baseI4infoSaIS0_EE12_Vector_implC2Ev, @function
_ZNSt12_Vector_baseI4infoSaIS0_EE12_Vector_implC2Ev:
.LFB7244:
	.cfi_startproc
	pushq	%rbp
	.cfi_def_cfa_offset 16
	.cfi_offset 6, -16
	movq	%rsp, %rbp
	.cfi_def_cfa_register 6
	subq	$16, %rsp
	movq	%rdi, -8(%rbp)
	movq	-8(%rbp), %rax
	movq	%rax, %rdi
	call	_ZNSaI4infoEC2Ev
	movq	-8(%rbp), %rax
	movq	$0, (%rax)
	movq	-8(%rbp), %rax
	movq	$0, 8(%rax)
	movq	-8(%rbp), %rax
	movq	$0, 16(%rax)
	nop
	leave
	.cfi_def_cfa 7, 8
	ret
	.cfi_endproc
.LFE7244:
	.size	_ZNSt12_Vector_baseI4infoSaIS0_EE12_Vector_implC2Ev, .-_ZNSt12_Vector_baseI4infoSaIS0_EE12_Vector_implC2Ev
	.weak	_ZNSt12_Vector_baseI4infoSaIS0_EE12_Vector_implC1Ev
	.set	_ZNSt12_Vector_baseI4infoSaIS0_EE12_Vector_implC1Ev,_ZNSt12_Vector_baseI4infoSaIS0_EE12_Vector_implC2Ev
	.section	.text._ZNSaI4infoED2Ev,"axG",@progbits,_ZNSaI4infoED5Ev,comdat
	.align 2
	.weak	_ZNSaI4infoED2Ev
	.type	_ZNSaI4infoED2Ev, @function
_ZNSaI4infoED2Ev:
.LFB7247:
	.cfi_startproc
	pushq	%rbp
	.cfi_def_cfa_offset 16
	.cfi_offset 6, -16
	movq	%rsp, %rbp
	.cfi_def_cfa_register 6
	subq	$16, %rsp
	movq	%rdi, -8(%rbp)
	movq	-8(%rbp), %rax
	movq	%rax, %rdi
	call	_ZN9__gnu_cxx13new_allocatorI4infoED2Ev
	nop
	leave
	.cfi_def_cfa 7, 8
	ret
	.cfi_endproc
.LFE7247:
	.size	_ZNSaI4infoED2Ev, .-_ZNSaI4infoED2Ev
	.weak	_ZNSaI4infoED1Ev
	.set	_ZNSaI4infoED1Ev,_ZNSaI4infoED2Ev
	.section	.text._ZNSt12_Vector_baseI4infoSaIS0_EE13_M_deallocateEPS0_m,"axG",@progbits,_ZNSt12_Vector_baseI4infoSaIS0_EE13_M_deallocateEPS0_m,comdat
	.align 2
	.weak	_ZNSt12_Vector_baseI4infoSaIS0_EE13_M_deallocateEPS0_m
	.type	_ZNSt12_Vector_baseI4infoSaIS0_EE13_M_deallocateEPS0_m, @function
_ZNSt12_Vector_baseI4infoSaIS0_EE13_M_deallocateEPS0_m:
.LFB7249:
	.cfi_startproc
	pushq	%rbp
	.cfi_def_cfa_offset 16
	.cfi_offset 6, -16
	movq	%rsp, %rbp
	.cfi_def_cfa_register 6
	subq	$32, %rsp
	movq	%rdi, -8(%rbp)
	movq	%rsi, -16(%rbp)
	movq	%rdx, -24(%rbp)
	cmpq	$0, -16(%rbp)
	je	.L176
	movq	-8(%rbp), %rax
	movq	-24(%rbp), %rdx
	movq	-16(%rbp), %rcx
	movq	%rcx, %rsi
	movq	%rax, %rdi
	call	_ZNSt16allocator_traitsISaI4infoEE10deallocateERS1_PS0_m
.L176:
	nop
	leave
	.cfi_def_cfa 7, 8
	ret
	.cfi_endproc
.LFE7249:
	.size	_ZNSt12_Vector_baseI4infoSaIS0_EE13_M_deallocateEPS0_m, .-_ZNSt12_Vector_baseI4infoSaIS0_EE13_M_deallocateEPS0_m
	.text
	.align 2
	.type	_ZN9__gnu_cxx5__ops10_Iter_predIZ5enterNSt7__cxx1112basic_stringIcSt11char_traitsIcESaIcEEEEUl4infoE_EC2ES9_, @function
_ZN9__gnu_cxx5__ops10_Iter_predIZ5enterNSt7__cxx1112basic_stringIcSt11char_traitsIcESaIcEEEEUl4infoE_EC2ES9_:
.LFB7254:
	.cfi_startproc
	pushq	%rbp
	.cfi_def_cfa_offset 16
	.cfi_offset 6, -16
	movq	%rsp, %rbp
	.cfi_def_cfa_register 6
	subq	$16, %rsp
	movq	%rdi, -8(%rbp)
	movq	%rsi, -16(%rbp)
	movq	-8(%rbp), %rax
	movq	-16(%rbp), %rdx
	movq	%rdx, %rsi
	movq	%rax, %rdi
	call	_ZZ5enterNSt7__cxx1112basic_stringIcSt11char_traitsIcESaIcEEEENUl4infoE_C1ERKS6_
	nop
	leave
	.cfi_def_cfa 7, 8
	ret
	.cfi_endproc
.LFE7254:
	.size	_ZN9__gnu_cxx5__ops10_Iter_predIZ5enterNSt7__cxx1112basic_stringIcSt11char_traitsIcESaIcEEEEUl4infoE_EC2ES9_, .-_ZN9__gnu_cxx5__ops10_Iter_predIZ5enterNSt7__cxx1112basic_stringIcSt11char_traitsIcESaIcEEEEUl4infoE_EC2ES9_
	.set	_ZN9__gnu_cxx5__ops10_Iter_predIZ5enterNSt7__cxx1112basic_stringIcSt11char_traitsIcESaIcEEEEUl4infoE_EC1ES9_,_ZN9__gnu_cxx5__ops10_Iter_predIZ5enterNSt7__cxx1112basic_stringIcSt11char_traitsIcESaIcEEEEUl4infoE_EC2ES9_
	.section	.text._ZSt19__iterator_categoryIN9__gnu_cxx17__normal_iteratorIP4infoSt6vectorIS2_SaIS2_EEEEENSt15iterator_traitsIT_E17iterator_categoryERKS9_,"axG",@progbits,_ZSt19__iterator_categoryIN9__gnu_cxx17__normal_iteratorIP4infoSt6vectorIS2_SaIS2_EEEEENSt15iterator_traitsIT_E17iterator_categoryERKS9_,comdat
	.weak	_ZSt19__iterator_categoryIN9__gnu_cxx17__normal_iteratorIP4infoSt6vectorIS2_SaIS2_EEEEENSt15iterator_traitsIT_E17iterator_categoryERKS9_
	.type	_ZSt19__iterator_categoryIN9__gnu_cxx17__normal_iteratorIP4infoSt6vectorIS2_SaIS2_EEEEENSt15iterator_traitsIT_E17iterator_categoryERKS9_, @function
_ZSt19__iterator_categoryIN9__gnu_cxx17__normal_iteratorIP4infoSt6vectorIS2_SaIS2_EEEEENSt15iterator_traitsIT_E17iterator_categoryERKS9_:
.LFB7256:
	.cfi_startproc
	pushq	%rbp
	.cfi_def_cfa_offset 16
	.cfi_offset 6, -16
	movq	%rsp, %rbp
	.cfi_def_cfa_register 6
	movq	%rdi, -8(%rbp)
	popq	%rbp
	.cfi_def_cfa 7, 8
	ret
	.cfi_endproc
.LFE7256:
	.size	_ZSt19__iterator_categoryIN9__gnu_cxx17__normal_iteratorIP4infoSt6vectorIS2_SaIS2_EEEEENSt15iterator_traitsIT_E17iterator_categoryERKS9_, .-_ZSt19__iterator_categoryIN9__gnu_cxx17__normal_iteratorIP4infoSt6vectorIS2_SaIS2_EEEEENSt15iterator_traitsIT_E17iterator_categoryERKS9_
	.text
	.type	_ZSt9__find_ifIN9__gnu_cxx17__normal_iteratorIP4infoSt6vectorIS2_SaIS2_EEEENS0_5__ops10_Iter_predIZ5enterNSt7__cxx1112basic_stringIcSt11char_traitsIcESaIcEEEEUlS2_E_EEET_SI_SI_T0_St26random_access_iterator_tag, @function
_ZSt9__find_ifIN9__gnu_cxx17__normal_iteratorIP4infoSt6vectorIS2_SaIS2_EEEENS0_5__ops10_Iter_predIZ5enterNSt7__cxx1112basic_stringIcSt11char_traitsIcESaIcEEEEUlS2_E_EEET_SI_SI_T0_St26random_access_iterator_tag:
.LFB7257:
	.cfi_startproc
	pushq	%rbp
	.cfi_def_cfa_offset 16
	.cfi_offset 6, -16
	movq	%rsp, %rbp
	.cfi_def_cfa_register 6
	subq	$48, %rsp
	movq	%rdi, -32(%rbp)
	movq	%rsi, -48(%rbp)
	movq	%rdx, -40(%rbp)
	leaq	-32(%rbp), %rdx
	leaq	-48(%rbp), %rax
	movq	%rdx, %rsi
	movq	%rax, %rdi
	call	_ZN9__gnu_cxxmiIP4infoSt6vectorIS1_SaIS1_EEEENS_17__normal_iteratorIT_T0_E15difference_typeERKS9_SC_
	sarq	$2, %rax
	movq	%rax, -8(%rbp)
.L187:
	cmpq	$0, -8(%rbp)
	jle	.L181
	movq	-32(%rbp), %rdx
	movq	-40(%rbp), %rax
	movq	%rdx, %rsi
	movq	%rax, %rdi
	call	_ZN9__gnu_cxx5__ops10_Iter_predIZ5enterNSt7__cxx1112basic_stringIcSt11char_traitsIcESaIcEEEEUl4infoE_EclINS_17__normal_iteratorIPS8_St6vectorIS8_SaIS8_EEEEEEbT_
	testb	%al, %al
	je	.L182
	movq	-32(%rbp), %rax
	jmp	.L183
.L182:
	leaq	-32(%rbp), %rax
	movq	%rax, %rdi
	call	_ZN9__gnu_cxx17__normal_iteratorIP4infoSt6vectorIS1_SaIS1_EEEppEv
	movq	-32(%rbp), %rdx
	movq	-40(%rbp), %rax
	movq	%rdx, %rsi
	movq	%rax, %rdi
	call	_ZN9__gnu_cxx5__ops10_Iter_predIZ5enterNSt7__cxx1112basic_stringIcSt11char_traitsIcESaIcEEEEUl4infoE_EclINS_17__normal_iteratorIPS8_St6vectorIS8_SaIS8_EEEEEEbT_
	testb	%al, %al
	je	.L184
	movq	-32(%rbp), %rax
	jmp	.L183
.L184:
	leaq	-32(%rbp), %rax
	movq	%rax, %rdi
	call	_ZN9__gnu_cxx17__normal_iteratorIP4infoSt6vectorIS1_SaIS1_EEEppEv
	movq	-32(%rbp), %rdx
	movq	-40(%rbp), %rax
	movq	%rdx, %rsi
	movq	%rax, %rdi
	call	_ZN9__gnu_cxx5__ops10_Iter_predIZ5enterNSt7__cxx1112basic_stringIcSt11char_traitsIcESaIcEEEEUl4infoE_EclINS_17__normal_iteratorIPS8_St6vectorIS8_SaIS8_EEEEEEbT_
	testb	%al, %al
	je	.L185
	movq	-32(%rbp), %rax
	jmp	.L183
.L185:
	leaq	-32(%rbp), %rax
	movq	%rax, %rdi
	call	_ZN9__gnu_cxx17__normal_iteratorIP4infoSt6vectorIS1_SaIS1_EEEppEv
	movq	-32(%rbp), %rdx
	movq	-40(%rbp), %rax
	movq	%rdx, %rsi
	movq	%rax, %rdi
	call	_ZN9__gnu_cxx5__ops10_Iter_predIZ5enterNSt7__cxx1112basic_stringIcSt11char_traitsIcESaIcEEEEUl4infoE_EclINS_17__normal_iteratorIPS8_St6vectorIS8_SaIS8_EEEEEEbT_
	testb	%al, %al
	je	.L186
	movq	-32(%rbp), %rax
	jmp	.L183
.L186:
	leaq	-32(%rbp), %rax
	movq	%rax, %rdi
	call	_ZN9__gnu_cxx17__normal_iteratorIP4infoSt6vectorIS1_SaIS1_EEEppEv
	subq	$1, -8(%rbp)
	jmp	.L187
.L181:
	leaq	-32(%rbp), %rdx
	leaq	-48(%rbp), %rax
	movq	%rdx, %rsi
	movq	%rax, %rdi
	call	_ZN9__gnu_cxxmiIP4infoSt6vectorIS1_SaIS1_EEEENS_17__normal_iteratorIT_T0_E15difference_typeERKS9_SC_
	cmpq	$2, %rax
	je	.L189
	cmpq	$3, %rax
	je	.L190
	cmpq	$1, %rax
	je	.L191
	jmp	.L188
.L190:
	movq	-32(%rbp), %rdx
	movq	-40(%rbp), %rax
	movq	%rdx, %rsi
	movq	%rax, %rdi
	call	_ZN9__gnu_cxx5__ops10_Iter_predIZ5enterNSt7__cxx1112basic_stringIcSt11char_traitsIcESaIcEEEEUl4infoE_EclINS_17__normal_iteratorIPS8_St6vectorIS8_SaIS8_EEEEEEbT_
	testb	%al, %al
	je	.L192
	movq	-32(%rbp), %rax
	jmp	.L183
.L192:
	leaq	-32(%rbp), %rax
	movq	%rax, %rdi
	call	_ZN9__gnu_cxx17__normal_iteratorIP4infoSt6vectorIS1_SaIS1_EEEppEv
.L189:
	movq	-32(%rbp), %rdx
	movq	-40(%rbp), %rax
	movq	%rdx, %rsi
	movq	%rax, %rdi
	call	_ZN9__gnu_cxx5__ops10_Iter_predIZ5enterNSt7__cxx1112basic_stringIcSt11char_traitsIcESaIcEEEEUl4infoE_EclINS_17__normal_iteratorIPS8_St6vectorIS8_SaIS8_EEEEEEbT_
	testb	%al, %al
	je	.L193
	movq	-32(%rbp), %rax
	jmp	.L183
.L193:
	leaq	-32(%rbp), %rax
	movq	%rax, %rdi
	call	_ZN9__gnu_cxx17__normal_iteratorIP4infoSt6vectorIS1_SaIS1_EEEppEv
.L191:
	movq	-32(%rbp), %rdx
	movq	-40(%rbp), %rax
	movq	%rdx, %rsi
	movq	%rax, %rdi
	call	_ZN9__gnu_cxx5__ops10_Iter_predIZ5enterNSt7__cxx1112basic_stringIcSt11char_traitsIcESaIcEEEEUl4infoE_EclINS_17__normal_iteratorIPS8_St6vectorIS8_SaIS8_EEEEEEbT_
	testb	%al, %al
	je	.L194
	movq	-32(%rbp), %rax
	jmp	.L183
.L194:
	leaq	-32(%rbp), %rax
	movq	%rax, %rdi
	call	_ZN9__gnu_cxx17__normal_iteratorIP4infoSt6vectorIS1_SaIS1_EEEppEv
.L188:
	movq	-48(%rbp), %rax
.L183:
	leave
	.cfi_def_cfa 7, 8
	ret
	.cfi_endproc
.LFE7257:
	.size	_ZSt9__find_ifIN9__gnu_cxx17__normal_iteratorIP4infoSt6vectorIS2_SaIS2_EEEENS0_5__ops10_Iter_predIZ5enterNSt7__cxx1112basic_stringIcSt11char_traitsIcESaIcEEEEUlS2_E_EEET_SI_SI_T0_St26random_access_iterator_tag, .-_ZSt9__find_ifIN9__gnu_cxx17__normal_iteratorIP4infoSt6vectorIS2_SaIS2_EEEENS0_5__ops10_Iter_predIZ5enterNSt7__cxx1112basic_stringIcSt11char_traitsIcESaIcEEEEUlS2_E_EEET_SI_SI_T0_St26random_access_iterator_tag
	.section	.text._ZN9__gnu_cxx13new_allocatorI4infoE9constructIS1_JRKS1_EEEvPT_DpOT0_,"axG",@progbits,_ZN9__gnu_cxx13new_allocatorI4infoE9constructIS1_JRKS1_EEEvPT_DpOT0_,comdat
	.align 2
	.weak	_ZN9__gnu_cxx13new_allocatorI4infoE9constructIS1_JRKS1_EEEvPT_DpOT0_
	.type	_ZN9__gnu_cxx13new_allocatorI4infoE9constructIS1_JRKS1_EEEvPT_DpOT0_, @function
_ZN9__gnu_cxx13new_allocatorI4infoE9constructIS1_JRKS1_EEEvPT_DpOT0_:
.LFB7258:
	.cfi_startproc
	.cfi_personality 0x3,__gxx_personality_v0
	.cfi_lsda 0x3,.LLSDA7258
	pushq	%rbp
	.cfi_def_cfa_offset 16
	.cfi_offset 6, -16
	movq	%rsp, %rbp
	.cfi_def_cfa_register 6
	pushq	%r13
	pushq	%r12
	pushq	%rbx
	subq	$40, %rsp
	.cfi_offset 13, -24
	.cfi_offset 12, -32
	.cfi_offset 3, -40
	movq	%rdi, -40(%rbp)
	movq	%rsi, -48(%rbp)
	movq	%rdx, -56(%rbp)
	movq	-56(%rbp), %rax
	movq	%rax, %rdi
	call	_ZSt7forwardIRK4infoEOT_RNSt16remove_referenceIS3_E4typeE
	movq	%rax, %r13
	movq	-48(%rbp), %r12
	movq	%r12, %rsi
	movl	$72, %edi
	call	_ZnwmPv
	movq	%rax, %rbx
	testq	%rbx, %rbx
	je	.L200
	movq	%r13, %rsi
	movq	%rbx, %rdi
.LEHB51:
	call	_ZN4infoC1ERKS_
.LEHE51:
	jmp	.L200
.L199:
	movq	%rax, %r13
	movq	%r12, %rsi
	movq	%rbx, %rdi
	call	_ZdlPvS_
	movq	%r13, %rax
	movq	%rax, %rdi
.LEHB52:
	call	_Unwind_Resume
.LEHE52:
.L200:
	nop
	addq	$40, %rsp
	popq	%rbx
	popq	%r12
	popq	%r13
	popq	%rbp
	.cfi_def_cfa 7, 8
	ret
	.cfi_endproc
.LFE7258:
	.section	.gcc_except_table
.LLSDA7258:
	.byte	0xff
	.byte	0xff
	.byte	0x1
	.uleb128 .LLSDACSE7258-.LLSDACSB7258
.LLSDACSB7258:
	.uleb128 .LEHB51-.LFB7258
	.uleb128 .LEHE51-.LEHB51
	.uleb128 .L199-.LFB7258
	.uleb128 0
	.uleb128 .LEHB52-.LFB7258
	.uleb128 .LEHE52-.LEHB52
	.uleb128 0
	.uleb128 0
.LLSDACSE7258:
	.section	.text._ZN9__gnu_cxx13new_allocatorI4infoE9constructIS1_JRKS1_EEEvPT_DpOT0_,"axG",@progbits,_ZN9__gnu_cxx13new_allocatorI4infoE9constructIS1_JRKS1_EEEvPT_DpOT0_,comdat
	.size	_ZN9__gnu_cxx13new_allocatorI4infoE9constructIS1_JRKS1_EEEvPT_DpOT0_, .-_ZN9__gnu_cxx13new_allocatorI4infoE9constructIS1_JRKS1_EEEvPT_DpOT0_
	.weak	_ZN9__gnu_cxx13new_allocatorI4infoE9constructIS1_IRKS1_EEEvPT_DpOT0_
	.set	_ZN9__gnu_cxx13new_allocatorI4infoE9constructIS1_IRKS1_EEEvPT_DpOT0_,_ZN9__gnu_cxx13new_allocatorI4infoE9constructIS1_JRKS1_EEEvPT_DpOT0_
	.section	.text._ZSt3maxImERKT_S2_S2_,"axG",@progbits,_ZSt3maxImERKT_S2_S2_,comdat
	.weak	_ZSt3maxImERKT_S2_S2_
	.type	_ZSt3maxImERKT_S2_S2_, @function
_ZSt3maxImERKT_S2_S2_:
.LFB7260:
	.cfi_startproc
	pushq	%rbp
	.cfi_def_cfa_offset 16
	.cfi_offset 6, -16
	movq	%rsp, %rbp
	.cfi_def_cfa_register 6
	movq	%rdi, -8(%rbp)
	movq	%rsi, -16(%rbp)
	movq	-8(%rbp), %rax
	movq	(%rax), %rdx
	movq	-16(%rbp), %rax
	movq	(%rax), %rax
	cmpq	%rax, %rdx
	jnb	.L202
	movq	-16(%rbp), %rax
	jmp	.L203
.L202:
	movq	-8(%rbp), %rax
.L203:
	popq	%rbp
	.cfi_def_cfa 7, 8
	ret
	.cfi_endproc
.LFE7260:
	.size	_ZSt3maxImERKT_S2_S2_, .-_ZSt3maxImERKT_S2_S2_
	.section	.text._ZNKSt6vectorI4infoSaIS0_EE12_M_check_lenEmPKc,"axG",@progbits,_ZNKSt6vectorI4infoSaIS0_EE12_M_check_lenEmPKc,comdat
	.align 2
	.weak	_ZNKSt6vectorI4infoSaIS0_EE12_M_check_lenEmPKc
	.type	_ZNKSt6vectorI4infoSaIS0_EE12_M_check_lenEmPKc, @function
_ZNKSt6vectorI4infoSaIS0_EE12_M_check_lenEmPKc:
.LFB7259:
	.cfi_startproc
	pushq	%rbp
	.cfi_def_cfa_offset 16
	.cfi_offset 6, -16
	movq	%rsp, %rbp
	.cfi_def_cfa_register 6
	pushq	%rbx
	subq	$72, %rsp
	.cfi_offset 3, -24
	movq	%rdi, -56(%rbp)
	movq	%rsi, -64(%rbp)
	movq	%rdx, -72(%rbp)
	movq	%fs:40, %rax
	movq	%rax, -24(%rbp)
	xorl	%eax, %eax
	movq	-56(%rbp), %rax
	movq	%rax, %rdi
	call	_ZNKSt6vectorI4infoSaIS0_EE8max_sizeEv
	movq	%rax, %rbx
	movq	-56(%rbp), %rax
	movq	%rax, %rdi
	call	_ZNKSt6vectorI4infoSaIS0_EE4sizeEv
	subq	%rax, %rbx
	movq	%rbx, %rdx
	movq	-64(%rbp), %rax
	cmpq	%rax, %rdx
	setb	%al
	testb	%al, %al
	je	.L205
	movq	-72(%rbp), %rax
	movq	%rax, %rdi
	call	_ZSt20__throw_length_errorPKc
.L205:
	movq	-56(%rbp), %rax
	movq	%rax, %rdi
	call	_ZNKSt6vectorI4infoSaIS0_EE4sizeEv
	movq	%rax, %rbx
	movq	-56(%rbp), %rax
	movq	%rax, %rdi
	call	_ZNKSt6vectorI4infoSaIS0_EE4sizeEv
	movq	%rax, -40(%rbp)
	leaq	-64(%rbp), %rdx
	leaq	-40(%rbp), %rax
	movq	%rdx, %rsi
	movq	%rax, %rdi
	call	_ZSt3maxImERKT_S2_S2_
	movq	(%rax), %rax
	addq	%rbx, %rax
	movq	%rax, -32(%rbp)
	movq	-56(%rbp), %rax
	movq	%rax, %rdi
	call	_ZNKSt6vectorI4infoSaIS0_EE4sizeEv
	cmpq	-32(%rbp), %rax
	ja	.L206
	movq	-56(%rbp), %rax
	movq	%rax, %rdi
	call	_ZNKSt6vectorI4infoSaIS0_EE8max_sizeEv
	cmpq	-32(%rbp), %rax
	jnb	.L207
.L206:
	movq	-56(%rbp), %rax
	movq	%rax, %rdi
	call	_ZNKSt6vectorI4infoSaIS0_EE8max_sizeEv
	jmp	.L209
.L207:
	movq	-32(%rbp), %rax
.L209:
	movq	-24(%rbp), %rcx
	xorq	%fs:40, %rcx
	je	.L210
	call	__stack_chk_fail
.L210:
	addq	$72, %rsp
	popq	%rbx
	popq	%rbp
	.cfi_def_cfa 7, 8
	ret
	.cfi_endproc
.LFE7259:
	.size	_ZNKSt6vectorI4infoSaIS0_EE12_M_check_lenEmPKc, .-_ZNKSt6vectorI4infoSaIS0_EE12_M_check_lenEmPKc
	.section	.text._ZNSt12_Vector_baseI4infoSaIS0_EE11_M_allocateEm,"axG",@progbits,_ZNSt12_Vector_baseI4infoSaIS0_EE11_M_allocateEm,comdat
	.align 2
	.weak	_ZNSt12_Vector_baseI4infoSaIS0_EE11_M_allocateEm
	.type	_ZNSt12_Vector_baseI4infoSaIS0_EE11_M_allocateEm, @function
_ZNSt12_Vector_baseI4infoSaIS0_EE11_M_allocateEm:
.LFB7261:
	.cfi_startproc
	pushq	%rbp
	.cfi_def_cfa_offset 16
	.cfi_offset 6, -16
	movq	%rsp, %rbp
	.cfi_def_cfa_register 6
	subq	$16, %rsp
	movq	%rdi, -8(%rbp)
	movq	%rsi, -16(%rbp)
	cmpq	$0, -16(%rbp)
	je	.L212
	movq	-8(%rbp), %rax
	movq	-16(%rbp), %rdx
	movq	%rdx, %rsi
	movq	%rax, %rdi
	call	_ZNSt16allocator_traitsISaI4infoEE8allocateERS1_m
	jmp	.L214
.L212:
	movl	$0, %eax
.L214:
	leave
	.cfi_def_cfa 7, 8
	ret
	.cfi_endproc
.LFE7261:
	.size	_ZNSt12_Vector_baseI4infoSaIS0_EE11_M_allocateEm, .-_ZNSt12_Vector_baseI4infoSaIS0_EE11_M_allocateEm
	.section	.text._ZNSt12_Vector_baseI4infoSaIS0_EE19_M_get_Tp_allocatorEv,"axG",@progbits,_ZNSt12_Vector_baseI4infoSaIS0_EE19_M_get_Tp_allocatorEv,comdat
	.align 2
	.weak	_ZNSt12_Vector_baseI4infoSaIS0_EE19_M_get_Tp_allocatorEv
	.type	_ZNSt12_Vector_baseI4infoSaIS0_EE19_M_get_Tp_allocatorEv, @function
_ZNSt12_Vector_baseI4infoSaIS0_EE19_M_get_Tp_allocatorEv:
.LFB7262:
	.cfi_startproc
	pushq	%rbp
	.cfi_def_cfa_offset 16
	.cfi_offset 6, -16
	movq	%rsp, %rbp
	.cfi_def_cfa_register 6
	movq	%rdi, -8(%rbp)
	movq	-8(%rbp), %rax
	popq	%rbp
	.cfi_def_cfa 7, 8
	ret
	.cfi_endproc
.LFE7262:
	.size	_ZNSt12_Vector_baseI4infoSaIS0_EE19_M_get_Tp_allocatorEv, .-_ZNSt12_Vector_baseI4infoSaIS0_EE19_M_get_Tp_allocatorEv
	.section	.text._ZSt34__uninitialized_move_if_noexcept_aIP4infoS1_SaIS0_EET0_T_S4_S3_RT1_,"axG",@progbits,_ZSt34__uninitialized_move_if_noexcept_aIP4infoS1_SaIS0_EET0_T_S4_S3_RT1_,comdat
	.weak	_ZSt34__uninitialized_move_if_noexcept_aIP4infoS1_SaIS0_EET0_T_S4_S3_RT1_
	.type	_ZSt34__uninitialized_move_if_noexcept_aIP4infoS1_SaIS0_EET0_T_S4_S3_RT1_, @function
_ZSt34__uninitialized_move_if_noexcept_aIP4infoS1_SaIS0_EET0_T_S4_S3_RT1_:
.LFB7263:
	.cfi_startproc
	pushq	%rbp
	.cfi_def_cfa_offset 16
	.cfi_offset 6, -16
	movq	%rsp, %rbp
	.cfi_def_cfa_register 6
	pushq	%rbx
	subq	$40, %rsp
	.cfi_offset 3, -24
	movq	%rdi, -24(%rbp)
	movq	%rsi, -32(%rbp)
	movq	%rdx, -40(%rbp)
	movq	%rcx, -48(%rbp)
	movq	-32(%rbp), %rax
	movq	%rax, %rdi
	call	_ZSt32__make_move_if_noexcept_iteratorIP4infoSt13move_iteratorIS1_EET0_T_
	movq	%rax, %rbx
	movq	-24(%rbp), %rax
	movq	%rax, %rdi
	call	_ZSt32__make_move_if_noexcept_iteratorIP4infoSt13move_iteratorIS1_EET0_T_
	movq	%rax, %rdi
	movq	-48(%rbp), %rdx
	movq	-40(%rbp), %rax
	movq	%rdx, %rcx
	movq	%rax, %rdx
	movq	%rbx, %rsi
	call	_ZSt22__uninitialized_copy_aISt13move_iteratorIP4infoES2_S1_ET0_T_S5_S4_RSaIT1_E
	addq	$40, %rsp
	popq	%rbx
	popq	%rbp
	.cfi_def_cfa 7, 8
	ret
	.cfi_endproc
.LFE7263:
	.size	_ZSt34__uninitialized_move_if_noexcept_aIP4infoS1_SaIS0_EET0_T_S4_S3_RT1_, .-_ZSt34__uninitialized_move_if_noexcept_aIP4infoS1_SaIS0_EET0_T_S4_S3_RT1_
	.section	.text._ZNSt16allocator_traitsISaI4infoEE7destroyIS0_EEvRS1_PT_,"axG",@progbits,_ZNSt16allocator_traitsISaI4infoEE7destroyIS0_EEvRS1_PT_,comdat
	.weak	_ZNSt16allocator_traitsISaI4infoEE7destroyIS0_EEvRS1_PT_
	.type	_ZNSt16allocator_traitsISaI4infoEE7destroyIS0_EEvRS1_PT_, @function
_ZNSt16allocator_traitsISaI4infoEE7destroyIS0_EEvRS1_PT_:
.LFB7264:
	.cfi_startproc
	pushq	%rbp
	.cfi_def_cfa_offset 16
	.cfi_offset 6, -16
	movq	%rsp, %rbp
	.cfi_def_cfa_register 6
	subq	$16, %rsp
	movq	%rdi, -8(%rbp)
	movq	%rsi, -16(%rbp)
	movq	-16(%rbp), %rdx
	movq	-8(%rbp), %rax
	movq	%rdx, %rsi
	movq	%rax, %rdi
	call	_ZN9__gnu_cxx13new_allocatorI4infoE7destroyIS1_EEvPT_
	nop
	leave
	.cfi_def_cfa 7, 8
	ret
	.cfi_endproc
.LFE7264:
	.size	_ZNSt16allocator_traitsISaI4infoEE7destroyIS0_EEvRS1_PT_, .-_ZNSt16allocator_traitsISaI4infoEE7destroyIS0_EEvRS1_PT_
	.section	.text._ZSt8_DestroyIP4infoS0_EvT_S2_RSaIT0_E,"axG",@progbits,_ZSt8_DestroyIP4infoS0_EvT_S2_RSaIT0_E,comdat
	.weak	_ZSt8_DestroyIP4infoS0_EvT_S2_RSaIT0_E
	.type	_ZSt8_DestroyIP4infoS0_EvT_S2_RSaIT0_E, @function
_ZSt8_DestroyIP4infoS0_EvT_S2_RSaIT0_E:
.LFB7265:
	.cfi_startproc
	pushq	%rbp
	.cfi_def_cfa_offset 16
	.cfi_offset 6, -16
	movq	%rsp, %rbp
	.cfi_def_cfa_register 6
	subq	$32, %rsp
	movq	%rdi, -8(%rbp)
	movq	%rsi, -16(%rbp)
	movq	%rdx, -24(%rbp)
	movq	-16(%rbp), %rdx
	movq	-8(%rbp), %rax
	movq	%rdx, %rsi
	movq	%rax, %rdi
	call	_ZSt8_DestroyIP4infoEvT_S2_
	nop
	leave
	.cfi_def_cfa 7, 8
	ret
	.cfi_endproc
.LFE7265:
	.size	_ZSt8_DestroyIP4infoS0_EvT_S2_RSaIT0_E, .-_ZSt8_DestroyIP4infoS0_EvT_S2_RSaIT0_E
	.text
	.align 2
	.type	_ZN9__gnu_cxx5__ops10_Iter_predIZ4mainEUl4infoE_EC2ES3_, @function
_ZN9__gnu_cxx5__ops10_Iter_predIZ4mainEUl4infoE_EC2ES3_:
.LFB7271:
	.cfi_startproc
	pushq	%rbp
	.cfi_def_cfa_offset 16
	.cfi_offset 6, -16
	movq	%rsp, %rbp
	.cfi_def_cfa_register 6
	subq	$16, %rsp
	movq	%rdi, -8(%rbp)
	movq	%rsi, -16(%rbp)
	movq	-8(%rbp), %rax
	movq	-16(%rbp), %rdx
	movq	%rdx, %rsi
	movq	%rax, %rdi
	call	_ZZ4mainENUl4infoE_C1ERKS0_
	nop
	leave
	.cfi_def_cfa 7, 8
	ret
	.cfi_endproc
.LFE7271:
	.size	_ZN9__gnu_cxx5__ops10_Iter_predIZ4mainEUl4infoE_EC2ES3_, .-_ZN9__gnu_cxx5__ops10_Iter_predIZ4mainEUl4infoE_EC2ES3_
	.set	_ZN9__gnu_cxx5__ops10_Iter_predIZ4mainEUl4infoE_EC1ES3_,_ZN9__gnu_cxx5__ops10_Iter_predIZ4mainEUl4infoE_EC2ES3_
	.type	_ZSt9__find_ifIN9__gnu_cxx17__normal_iteratorIP4infoSt6vectorIS2_SaIS2_EEEENS0_5__ops10_Iter_predIZ4mainEUlS2_E_EEET_SC_SC_T0_St26random_access_iterator_tag, @function
_ZSt9__find_ifIN9__gnu_cxx17__normal_iteratorIP4infoSt6vectorIS2_SaIS2_EEEENS0_5__ops10_Iter_predIZ4mainEUlS2_E_EEET_SC_SC_T0_St26random_access_iterator_tag:
.LFB7273:
	.cfi_startproc
	pushq	%rbp
	.cfi_def_cfa_offset 16
	.cfi_offset 6, -16
	movq	%rsp, %rbp
	.cfi_def_cfa_register 6
	subq	$48, %rsp
	movq	%rdi, -32(%rbp)
	movq	%rsi, -48(%rbp)
	movq	%rdx, -40(%rbp)
	leaq	-32(%rbp), %rdx
	leaq	-48(%rbp), %rax
	movq	%rdx, %rsi
	movq	%rax, %rdi
	call	_ZN9__gnu_cxxmiIP4infoSt6vectorIS1_SaIS1_EEEENS_17__normal_iteratorIT_T0_E15difference_typeERKS9_SC_
	sarq	$2, %rax
	movq	%rax, -8(%rbp)
.L229:
	cmpq	$0, -8(%rbp)
	jle	.L223
	movq	-32(%rbp), %rdx
	movq	-40(%rbp), %rax
	movq	%rdx, %rsi
	movq	%rax, %rdi
	call	_ZN9__gnu_cxx5__ops10_Iter_predIZ4mainEUl4infoE_EclINS_17__normal_iteratorIPS2_St6vectorIS2_SaIS2_EEEEEEbT_
	testb	%al, %al
	je	.L224
	movq	-32(%rbp), %rax
	jmp	.L225
.L224:
	leaq	-32(%rbp), %rax
	movq	%rax, %rdi
	call	_ZN9__gnu_cxx17__normal_iteratorIP4infoSt6vectorIS1_SaIS1_EEEppEv
	movq	-32(%rbp), %rdx
	movq	-40(%rbp), %rax
	movq	%rdx, %rsi
	movq	%rax, %rdi
	call	_ZN9__gnu_cxx5__ops10_Iter_predIZ4mainEUl4infoE_EclINS_17__normal_iteratorIPS2_St6vectorIS2_SaIS2_EEEEEEbT_
	testb	%al, %al
	je	.L226
	movq	-32(%rbp), %rax
	jmp	.L225
.L226:
	leaq	-32(%rbp), %rax
	movq	%rax, %rdi
	call	_ZN9__gnu_cxx17__normal_iteratorIP4infoSt6vectorIS1_SaIS1_EEEppEv
	movq	-32(%rbp), %rdx
	movq	-40(%rbp), %rax
	movq	%rdx, %rsi
	movq	%rax, %rdi
	call	_ZN9__gnu_cxx5__ops10_Iter_predIZ4mainEUl4infoE_EclINS_17__normal_iteratorIPS2_St6vectorIS2_SaIS2_EEEEEEbT_
	testb	%al, %al
	je	.L227
	movq	-32(%rbp), %rax
	jmp	.L225
.L227:
	leaq	-32(%rbp), %rax
	movq	%rax, %rdi
	call	_ZN9__gnu_cxx17__normal_iteratorIP4infoSt6vectorIS1_SaIS1_EEEppEv
	movq	-32(%rbp), %rdx
	movq	-40(%rbp), %rax
	movq	%rdx, %rsi
	movq	%rax, %rdi
	call	_ZN9__gnu_cxx5__ops10_Iter_predIZ4mainEUl4infoE_EclINS_17__normal_iteratorIPS2_St6vectorIS2_SaIS2_EEEEEEbT_
	testb	%al, %al
	je	.L228
	movq	-32(%rbp), %rax
	jmp	.L225
.L228:
	leaq	-32(%rbp), %rax
	movq	%rax, %rdi
	call	_ZN9__gnu_cxx17__normal_iteratorIP4infoSt6vectorIS1_SaIS1_EEEppEv
	subq	$1, -8(%rbp)
	jmp	.L229
.L223:
	leaq	-32(%rbp), %rdx
	leaq	-48(%rbp), %rax
	movq	%rdx, %rsi
	movq	%rax, %rdi
	call	_ZN9__gnu_cxxmiIP4infoSt6vectorIS1_SaIS1_EEEENS_17__normal_iteratorIT_T0_E15difference_typeERKS9_SC_
	cmpq	$2, %rax
	je	.L231
	cmpq	$3, %rax
	je	.L232
	cmpq	$1, %rax
	je	.L233
	jmp	.L230
.L232:
	movq	-32(%rbp), %rdx
	movq	-40(%rbp), %rax
	movq	%rdx, %rsi
	movq	%rax, %rdi
	call	_ZN9__gnu_cxx5__ops10_Iter_predIZ4mainEUl4infoE_EclINS_17__normal_iteratorIPS2_St6vectorIS2_SaIS2_EEEEEEbT_
	testb	%al, %al
	je	.L234
	movq	-32(%rbp), %rax
	jmp	.L225
.L234:
	leaq	-32(%rbp), %rax
	movq	%rax, %rdi
	call	_ZN9__gnu_cxx17__normal_iteratorIP4infoSt6vectorIS1_SaIS1_EEEppEv
.L231:
	movq	-32(%rbp), %rdx
	movq	-40(%rbp), %rax
	movq	%rdx, %rsi
	movq	%rax, %rdi
	call	_ZN9__gnu_cxx5__ops10_Iter_predIZ4mainEUl4infoE_EclINS_17__normal_iteratorIPS2_St6vectorIS2_SaIS2_EEEEEEbT_
	testb	%al, %al
	je	.L235
	movq	-32(%rbp), %rax
	jmp	.L225
.L235:
	leaq	-32(%rbp), %rax
	movq	%rax, %rdi
	call	_ZN9__gnu_cxx17__normal_iteratorIP4infoSt6vectorIS1_SaIS1_EEEppEv
.L233:
	movq	-32(%rbp), %rdx
	movq	-40(%rbp), %rax
	movq	%rdx, %rsi
	movq	%rax, %rdi
	call	_ZN9__gnu_cxx5__ops10_Iter_predIZ4mainEUl4infoE_EclINS_17__normal_iteratorIPS2_St6vectorIS2_SaIS2_EEEEEEbT_
	testb	%al, %al
	je	.L236
	movq	-32(%rbp), %rax
	jmp	.L225
.L236:
	leaq	-32(%rbp), %rax
	movq	%rax, %rdi
	call	_ZN9__gnu_cxx17__normal_iteratorIP4infoSt6vectorIS1_SaIS1_EEEppEv
.L230:
	movq	-48(%rbp), %rax
.L225:
	leave
	.cfi_def_cfa 7, 8
	ret
	.cfi_endproc
.LFE7273:
	.size	_ZSt9__find_ifIN9__gnu_cxx17__normal_iteratorIP4infoSt6vectorIS2_SaIS2_EEEENS0_5__ops10_Iter_predIZ4mainEUlS2_E_EEET_SC_SC_T0_St26random_access_iterator_tag, .-_ZSt9__find_ifIN9__gnu_cxx17__normal_iteratorIP4infoSt6vectorIS2_SaIS2_EEEENS0_5__ops10_Iter_predIZ4mainEUlS2_E_EEET_SC_SC_T0_St26random_access_iterator_tag
	.section	.text._ZNSaI4infoEC2Ev,"axG",@progbits,_ZNSaI4infoEC5Ev,comdat
	.align 2
	.weak	_ZNSaI4infoEC2Ev
	.type	_ZNSaI4infoEC2Ev, @function
_ZNSaI4infoEC2Ev:
.LFB7315:
	.cfi_startproc
	pushq	%rbp
	.cfi_def_cfa_offset 16
	.cfi_offset 6, -16
	movq	%rsp, %rbp
	.cfi_def_cfa_register 6
	subq	$16, %rsp
	movq	%rdi, -8(%rbp)
	movq	-8(%rbp), %rax
	movq	%rax, %rdi
	call	_ZN9__gnu_cxx13new_allocatorI4infoEC2Ev
	nop
	leave
	.cfi_def_cfa 7, 8
	ret
	.cfi_endproc
.LFE7315:
	.size	_ZNSaI4infoEC2Ev, .-_ZNSaI4infoEC2Ev
	.weak	_ZNSaI4infoEC1Ev
	.set	_ZNSaI4infoEC1Ev,_ZNSaI4infoEC2Ev
	.section	.text._ZN9__gnu_cxx13new_allocatorI4infoED2Ev,"axG",@progbits,_ZN9__gnu_cxx13new_allocatorI4infoED5Ev,comdat
	.align 2
	.weak	_ZN9__gnu_cxx13new_allocatorI4infoED2Ev
	.type	_ZN9__gnu_cxx13new_allocatorI4infoED2Ev, @function
_ZN9__gnu_cxx13new_allocatorI4infoED2Ev:
.LFB7318:
	.cfi_startproc
	pushq	%rbp
	.cfi_def_cfa_offset 16
	.cfi_offset 6, -16
	movq	%rsp, %rbp
	.cfi_def_cfa_register 6
	movq	%rdi, -8(%rbp)
	nop
	popq	%rbp
	.cfi_def_cfa 7, 8
	ret
	.cfi_endproc
.LFE7318:
	.size	_ZN9__gnu_cxx13new_allocatorI4infoED2Ev, .-_ZN9__gnu_cxx13new_allocatorI4infoED2Ev
	.weak	_ZN9__gnu_cxx13new_allocatorI4infoED1Ev
	.set	_ZN9__gnu_cxx13new_allocatorI4infoED1Ev,_ZN9__gnu_cxx13new_allocatorI4infoED2Ev
	.section	.text._ZNSt16allocator_traitsISaI4infoEE10deallocateERS1_PS0_m,"axG",@progbits,_ZNSt16allocator_traitsISaI4infoEE10deallocateERS1_PS0_m,comdat
	.weak	_ZNSt16allocator_traitsISaI4infoEE10deallocateERS1_PS0_m
	.type	_ZNSt16allocator_traitsISaI4infoEE10deallocateERS1_PS0_m, @function
_ZNSt16allocator_traitsISaI4infoEE10deallocateERS1_PS0_m:
.LFB7320:
	.cfi_startproc
	pushq	%rbp
	.cfi_def_cfa_offset 16
	.cfi_offset 6, -16
	movq	%rsp, %rbp
	.cfi_def_cfa_register 6
	subq	$32, %rsp
	movq	%rdi, -8(%rbp)
	movq	%rsi, -16(%rbp)
	movq	%rdx, -24(%rbp)
	movq	-24(%rbp), %rdx
	movq	-16(%rbp), %rcx
	movq	-8(%rbp), %rax
	movq	%rcx, %rsi
	movq	%rax, %rdi
	call	_ZN9__gnu_cxx13new_allocatorI4infoE10deallocateEPS1_m
	nop
	leave
	.cfi_def_cfa 7, 8
	ret
	.cfi_endproc
.LFE7320:
	.size	_ZNSt16allocator_traitsISaI4infoEE10deallocateERS1_PS0_m, .-_ZNSt16allocator_traitsISaI4infoEE10deallocateERS1_PS0_m
	.section	.text._ZN9__gnu_cxxmiIP4infoSt6vectorIS1_SaIS1_EEEENS_17__normal_iteratorIT_T0_E15difference_typeERKS9_SC_,"axG",@progbits,_ZN9__gnu_cxxmiIP4infoSt6vectorIS1_SaIS1_EEEENS_17__normal_iteratorIT_T0_E15difference_typeERKS9_SC_,comdat
	.weak	_ZN9__gnu_cxxmiIP4infoSt6vectorIS1_SaIS1_EEEENS_17__normal_iteratorIT_T0_E15difference_typeERKS9_SC_
	.type	_ZN9__gnu_cxxmiIP4infoSt6vectorIS1_SaIS1_EEEENS_17__normal_iteratorIT_T0_E15difference_typeERKS9_SC_, @function
_ZN9__gnu_cxxmiIP4infoSt6vectorIS1_SaIS1_EEEENS_17__normal_iteratorIT_T0_E15difference_typeERKS9_SC_:
.LFB7322:
	.cfi_startproc
	pushq	%rbp
	.cfi_def_cfa_offset 16
	.cfi_offset 6, -16
	movq	%rsp, %rbp
	.cfi_def_cfa_register 6
	pushq	%rbx
	subq	$24, %rsp
	.cfi_offset 3, -24
	movq	%rdi, -24(%rbp)
	movq	%rsi, -32(%rbp)
	movq	-24(%rbp), %rax
	movq	%rax, %rdi
	call	_ZNK9__gnu_cxx17__normal_iteratorIP4infoSt6vectorIS1_SaIS1_EEE4baseEv
	movq	(%rax), %rax
	movq	%rax, %rbx
	movq	-32(%rbp), %rax
	movq	%rax, %rdi
	call	_ZNK9__gnu_cxx17__normal_iteratorIP4infoSt6vectorIS1_SaIS1_EEE4baseEv
	movq	(%rax), %rax
	subq	%rax, %rbx
	movq	%rbx, %rax
	sarq	$3, %rax
	movq	%rax, %rdx
	movabsq	$-8198552921648689607, %rax
	imulq	%rdx, %rax
	addq	$24, %rsp
	popq	%rbx
	popq	%rbp
	.cfi_def_cfa 7, 8
	ret
	.cfi_endproc
.LFE7322:
	.size	_ZN9__gnu_cxxmiIP4infoSt6vectorIS1_SaIS1_EEEENS_17__normal_iteratorIT_T0_E15difference_typeERKS9_SC_, .-_ZN9__gnu_cxxmiIP4infoSt6vectorIS1_SaIS1_EEEENS_17__normal_iteratorIT_T0_E15difference_typeERKS9_SC_
	.text
	.align 2
	.type	_ZN9__gnu_cxx5__ops10_Iter_predIZ5enterNSt7__cxx1112basic_stringIcSt11char_traitsIcESaIcEEEEUl4infoE_EclINS_17__normal_iteratorIPS8_St6vectorIS8_SaIS8_EEEEEEbT_, @function
_ZN9__gnu_cxx5__ops10_Iter_predIZ5enterNSt7__cxx1112basic_stringIcSt11char_traitsIcESaIcEEEEUl4infoE_EclINS_17__normal_iteratorIPS8_St6vectorIS8_SaIS8_EEEEEEbT_:
.LFB7323:
	.cfi_startproc
	.cfi_personality 0x3,__gxx_personality_v0
	.cfi_lsda 0x3,.LLSDA7323
	pushq	%rbp
	.cfi_def_cfa_offset 16
	.cfi_offset 6, -16
	movq	%rsp, %rbp
	.cfi_def_cfa_register 6
	pushq	%rbx
	subq	$104, %rsp
	.cfi_offset 3, -24
	movq	%rdi, -104(%rbp)
	movq	%rsi, -112(%rbp)
	movq	%fs:40, %rax
	movq	%rax, -24(%rbp)
	xorl	%eax, %eax
	leaq	-112(%rbp), %rax
	movq	%rax, %rdi
	call	_ZNK9__gnu_cxx17__normal_iteratorIP4infoSt6vectorIS1_SaIS1_EEEdeEv
	movq	%rax, %rdx
	leaq	-96(%rbp), %rax
	movq	%rdx, %rsi
	movq	%rax, %rdi
.LEHB53:
	call	_ZN4infoC1ERKS_
.LEHE53:
	movq	-104(%rbp), %rax
	leaq	-96(%rbp), %rdx
	movq	%rdx, %rsi
	movq	%rax, %rdi
.LEHB54:
	call	_ZZ5enterNSt7__cxx1112basic_stringIcSt11char_traitsIcESaIcEEEENKUl4infoE_clES5_
.LEHE54:
	movl	%eax, %ebx
	leaq	-96(%rbp), %rax
	movq	%rax, %rdi
	call	_ZN4infoD1Ev
	movl	%ebx, %eax
	movq	-24(%rbp), %rcx
	xorq	%fs:40, %rcx
	je	.L245
	jmp	.L247
.L246:
	movq	%rax, %rbx
	leaq	-96(%rbp), %rax
	movq	%rax, %rdi
	call	_ZN4infoD1Ev
	movq	%rbx, %rax
	movq	%rax, %rdi
.LEHB55:
	call	_Unwind_Resume
.LEHE55:
.L247:
	call	__stack_chk_fail
.L245:
	addq	$104, %rsp
	popq	%rbx
	popq	%rbp
	.cfi_def_cfa 7, 8
	ret
	.cfi_endproc
.LFE7323:
	.section	.gcc_except_table
.LLSDA7323:
	.byte	0xff
	.byte	0xff
	.byte	0x1
	.uleb128 .LLSDACSE7323-.LLSDACSB7323
.LLSDACSB7323:
	.uleb128 .LEHB53-.LFB7323
	.uleb128 .LEHE53-.LEHB53
	.uleb128 0
	.uleb128 0
	.uleb128 .LEHB54-.LFB7323
	.uleb128 .LEHE54-.LEHB54
	.uleb128 .L246-.LFB7323
	.uleb128 0
	.uleb128 .LEHB55-.LFB7323
	.uleb128 .LEHE55-.LEHB55
	.uleb128 0
	.uleb128 0
.LLSDACSE7323:
	.text
	.size	_ZN9__gnu_cxx5__ops10_Iter_predIZ5enterNSt7__cxx1112basic_stringIcSt11char_traitsIcESaIcEEEEUl4infoE_EclINS_17__normal_iteratorIPS8_St6vectorIS8_SaIS8_EEEEEEbT_, .-_ZN9__gnu_cxx5__ops10_Iter_predIZ5enterNSt7__cxx1112basic_stringIcSt11char_traitsIcESaIcEEEEUl4infoE_EclINS_17__normal_iteratorIPS8_St6vectorIS8_SaIS8_EEEEEEbT_
	.section	.text._ZNKSt6vectorI4infoSaIS0_EE8max_sizeEv,"axG",@progbits,_ZNKSt6vectorI4infoSaIS0_EE8max_sizeEv,comdat
	.align 2
	.weak	_ZNKSt6vectorI4infoSaIS0_EE8max_sizeEv
	.type	_ZNKSt6vectorI4infoSaIS0_EE8max_sizeEv, @function
_ZNKSt6vectorI4infoSaIS0_EE8max_sizeEv:
.LFB7324:
	.cfi_startproc
	pushq	%rbp
	.cfi_def_cfa_offset 16
	.cfi_offset 6, -16
	movq	%rsp, %rbp
	.cfi_def_cfa_register 6
	subq	$16, %rsp
	movq	%rdi, -8(%rbp)
	movq	-8(%rbp), %rax
	movq	%rax, %rdi
	call	_ZNKSt12_Vector_baseI4infoSaIS0_EE19_M_get_Tp_allocatorEv
	movq	%rax, %rdi
	call	_ZNSt16allocator_traitsISaI4infoEE8max_sizeERKS1_
	leave
	.cfi_def_cfa 7, 8
	ret
	.cfi_endproc
.LFE7324:
	.size	_ZNKSt6vectorI4infoSaIS0_EE8max_sizeEv, .-_ZNKSt6vectorI4infoSaIS0_EE8max_sizeEv
	.section	.text._ZNSt16allocator_traitsISaI4infoEE8allocateERS1_m,"axG",@progbits,_ZNSt16allocator_traitsISaI4infoEE8allocateERS1_m,comdat
	.weak	_ZNSt16allocator_traitsISaI4infoEE8allocateERS1_m
	.type	_ZNSt16allocator_traitsISaI4infoEE8allocateERS1_m, @function
_ZNSt16allocator_traitsISaI4infoEE8allocateERS1_m:
.LFB7325:
	.cfi_startproc
	pushq	%rbp
	.cfi_def_cfa_offset 16
	.cfi_offset 6, -16
	movq	%rsp, %rbp
	.cfi_def_cfa_register 6
	subq	$16, %rsp
	movq	%rdi, -8(%rbp)
	movq	%rsi, -16(%rbp)
	movq	-16(%rbp), %rcx
	movq	-8(%rbp), %rax
	movl	$0, %edx
	movq	%rcx, %rsi
	movq	%rax, %rdi
	call	_ZN9__gnu_cxx13new_allocatorI4infoE8allocateEmPKv
	leave
	.cfi_def_cfa 7, 8
	ret
	.cfi_endproc
.LFE7325:
	.size	_ZNSt16allocator_traitsISaI4infoEE8allocateERS1_m, .-_ZNSt16allocator_traitsISaI4infoEE8allocateERS1_m
	.section	.text._ZSt32__make_move_if_noexcept_iteratorIP4infoSt13move_iteratorIS1_EET0_T_,"axG",@progbits,_ZSt32__make_move_if_noexcept_iteratorIP4infoSt13move_iteratorIS1_EET0_T_,comdat
	.weak	_ZSt32__make_move_if_noexcept_iteratorIP4infoSt13move_iteratorIS1_EET0_T_
	.type	_ZSt32__make_move_if_noexcept_iteratorIP4infoSt13move_iteratorIS1_EET0_T_, @function
_ZSt32__make_move_if_noexcept_iteratorIP4infoSt13move_iteratorIS1_EET0_T_:
.LFB7326:
	.cfi_startproc
	pushq	%rbp
	.cfi_def_cfa_offset 16
	.cfi_offset 6, -16
	movq	%rsp, %rbp
	.cfi_def_cfa_register 6
	subq	$32, %rsp
	movq	%rdi, -24(%rbp)
	movq	%fs:40, %rax
	movq	%rax, -8(%rbp)
	xorl	%eax, %eax
	movq	-24(%rbp), %rdx
	leaq	-16(%rbp), %rax
	movq	%rdx, %rsi
	movq	%rax, %rdi
	call	_ZNSt13move_iteratorIP4infoEC1ES1_
	movq	-16(%rbp), %rax
	movq	-8(%rbp), %rcx
	xorq	%fs:40, %rcx
	je	.L254
	call	__stack_chk_fail
.L254:
	leave
	.cfi_def_cfa 7, 8
	ret
	.cfi_endproc
.LFE7326:
	.size	_ZSt32__make_move_if_noexcept_iteratorIP4infoSt13move_iteratorIS1_EET0_T_, .-_ZSt32__make_move_if_noexcept_iteratorIP4infoSt13move_iteratorIS1_EET0_T_
	.section	.text._ZSt22__uninitialized_copy_aISt13move_iteratorIP4infoES2_S1_ET0_T_S5_S4_RSaIT1_E,"axG",@progbits,_ZSt22__uninitialized_copy_aISt13move_iteratorIP4infoES2_S1_ET0_T_S5_S4_RSaIT1_E,comdat
	.weak	_ZSt22__uninitialized_copy_aISt13move_iteratorIP4infoES2_S1_ET0_T_S5_S4_RSaIT1_E
	.type	_ZSt22__uninitialized_copy_aISt13move_iteratorIP4infoES2_S1_ET0_T_S5_S4_RSaIT1_E, @function
_ZSt22__uninitialized_copy_aISt13move_iteratorIP4infoES2_S1_ET0_T_S5_S4_RSaIT1_E:
.LFB7327:
	.cfi_startproc
	pushq	%rbp
	.cfi_def_cfa_offset 16
	.cfi_offset 6, -16
	movq	%rsp, %rbp
	.cfi_def_cfa_register 6
	subq	$32, %rsp
	movq	%rdi, -16(%rbp)
	movq	%rsi, -32(%rbp)
	movq	%rdx, -24(%rbp)
	movq	%rcx, -8(%rbp)
	movq	-24(%rbp), %rdx
	movq	-32(%rbp), %rcx
	movq	-16(%rbp), %rax
	movq	%rcx, %rsi
	movq	%rax, %rdi
	call	_ZSt18uninitialized_copyISt13move_iteratorIP4infoES2_ET0_T_S5_S4_
	leave
	.cfi_def_cfa 7, 8
	ret
	.cfi_endproc
.LFE7327:
	.size	_ZSt22__uninitialized_copy_aISt13move_iteratorIP4infoES2_S1_ET0_T_S5_S4_RSaIT1_E, .-_ZSt22__uninitialized_copy_aISt13move_iteratorIP4infoES2_S1_ET0_T_S5_S4_RSaIT1_E
	.section	.text._ZN9__gnu_cxx13new_allocatorI4infoE7destroyIS1_EEvPT_,"axG",@progbits,_ZN9__gnu_cxx13new_allocatorI4infoE7destroyIS1_EEvPT_,comdat
	.align 2
	.weak	_ZN9__gnu_cxx13new_allocatorI4infoE7destroyIS1_EEvPT_
	.type	_ZN9__gnu_cxx13new_allocatorI4infoE7destroyIS1_EEvPT_, @function
_ZN9__gnu_cxx13new_allocatorI4infoE7destroyIS1_EEvPT_:
.LFB7328:
	.cfi_startproc
	pushq	%rbp
	.cfi_def_cfa_offset 16
	.cfi_offset 6, -16
	movq	%rsp, %rbp
	.cfi_def_cfa_register 6
	subq	$16, %rsp
	movq	%rdi, -8(%rbp)
	movq	%rsi, -16(%rbp)
	movq	-16(%rbp), %rax
	movq	%rax, %rdi
	call	_ZN4infoD1Ev
	nop
	leave
	.cfi_def_cfa 7, 8
	ret
	.cfi_endproc
.LFE7328:
	.size	_ZN9__gnu_cxx13new_allocatorI4infoE7destroyIS1_EEvPT_, .-_ZN9__gnu_cxx13new_allocatorI4infoE7destroyIS1_EEvPT_
	.section	.text._ZSt8_DestroyIP4infoEvT_S2_,"axG",@progbits,_ZSt8_DestroyIP4infoEvT_S2_,comdat
	.weak	_ZSt8_DestroyIP4infoEvT_S2_
	.type	_ZSt8_DestroyIP4infoEvT_S2_, @function
_ZSt8_DestroyIP4infoEvT_S2_:
.LFB7329:
	.cfi_startproc
	pushq	%rbp
	.cfi_def_cfa_offset 16
	.cfi_offset 6, -16
	movq	%rsp, %rbp
	.cfi_def_cfa_register 6
	subq	$16, %rsp
	movq	%rdi, -8(%rbp)
	movq	%rsi, -16(%rbp)
	movq	-16(%rbp), %rdx
	movq	-8(%rbp), %rax
	movq	%rdx, %rsi
	movq	%rax, %rdi
	call	_ZNSt12_Destroy_auxILb0EE9__destroyIP4infoEEvT_S4_
	nop
	leave
	.cfi_def_cfa 7, 8
	ret
	.cfi_endproc
.LFE7329:
	.size	_ZSt8_DestroyIP4infoEvT_S2_, .-_ZSt8_DestroyIP4infoEvT_S2_
	.text
	.align 2
	.type	_ZN9__gnu_cxx5__ops10_Iter_predIZ4mainEUl4infoE_EclINS_17__normal_iteratorIPS2_St6vectorIS2_SaIS2_EEEEEEbT_, @function
_ZN9__gnu_cxx5__ops10_Iter_predIZ4mainEUl4infoE_EclINS_17__normal_iteratorIPS2_St6vectorIS2_SaIS2_EEEEEEbT_:
.LFB7330:
	.cfi_startproc
	.cfi_personality 0x3,__gxx_personality_v0
	.cfi_lsda 0x3,.LLSDA7330
	pushq	%rbp
	.cfi_def_cfa_offset 16
	.cfi_offset 6, -16
	movq	%rsp, %rbp
	.cfi_def_cfa_register 6
	pushq	%rbx
	subq	$104, %rsp
	.cfi_offset 3, -24
	movq	%rdi, -104(%rbp)
	movq	%rsi, -112(%rbp)
	movq	%fs:40, %rax
	movq	%rax, -24(%rbp)
	xorl	%eax, %eax
	leaq	-112(%rbp), %rax
	movq	%rax, %rdi
	call	_ZNK9__gnu_cxx17__normal_iteratorIP4infoSt6vectorIS1_SaIS1_EEEdeEv
	movq	%rax, %rdx
	leaq	-96(%rbp), %rax
	movq	%rdx, %rsi
	movq	%rax, %rdi
.LEHB56:
	call	_ZN4infoC1ERKS_
.LEHE56:
	movq	-104(%rbp), %rax
	leaq	-96(%rbp), %rdx
	movq	%rdx, %rsi
	movq	%rax, %rdi
.LEHB57:
	call	_ZZ4mainENKUl4infoE_clES_
.LEHE57:
	movl	%eax, %ebx
	leaq	-96(%rbp), %rax
	movq	%rax, %rdi
	call	_ZN4infoD1Ev
	movl	%ebx, %eax
	movq	-24(%rbp), %rcx
	xorq	%fs:40, %rcx
	je	.L262
	jmp	.L264
.L263:
	movq	%rax, %rbx
	leaq	-96(%rbp), %rax
	movq	%rax, %rdi
	call	_ZN4infoD1Ev
	movq	%rbx, %rax
	movq	%rax, %rdi
.LEHB58:
	call	_Unwind_Resume
.LEHE58:
.L264:
	call	__stack_chk_fail
.L262:
	addq	$104, %rsp
	popq	%rbx
	popq	%rbp
	.cfi_def_cfa 7, 8
	ret
	.cfi_endproc
.LFE7330:
	.section	.gcc_except_table
.LLSDA7330:
	.byte	0xff
	.byte	0xff
	.byte	0x1
	.uleb128 .LLSDACSE7330-.LLSDACSB7330
.LLSDACSB7330:
	.uleb128 .LEHB56-.LFB7330
	.uleb128 .LEHE56-.LEHB56
	.uleb128 0
	.uleb128 0
	.uleb128 .LEHB57-.LFB7330
	.uleb128 .LEHE57-.LEHB57
	.uleb128 .L263-.LFB7330
	.uleb128 0
	.uleb128 .LEHB58-.LFB7330
	.uleb128 .LEHE58-.LEHB58
	.uleb128 0
	.uleb128 0
.LLSDACSE7330:
	.text
	.size	_ZN9__gnu_cxx5__ops10_Iter_predIZ4mainEUl4infoE_EclINS_17__normal_iteratorIPS2_St6vectorIS2_SaIS2_EEEEEEbT_, .-_ZN9__gnu_cxx5__ops10_Iter_predIZ4mainEUl4infoE_EclINS_17__normal_iteratorIPS2_St6vectorIS2_SaIS2_EEEEEEbT_
	.section	.text._ZN9__gnu_cxx13new_allocatorI4infoEC2Ev,"axG",@progbits,_ZN9__gnu_cxx13new_allocatorI4infoEC5Ev,comdat
	.align 2
	.weak	_ZN9__gnu_cxx13new_allocatorI4infoEC2Ev
	.type	_ZN9__gnu_cxx13new_allocatorI4infoEC2Ev, @function
_ZN9__gnu_cxx13new_allocatorI4infoEC2Ev:
.LFB7364:
	.cfi_startproc
	pushq	%rbp
	.cfi_def_cfa_offset 16
	.cfi_offset 6, -16
	movq	%rsp, %rbp
	.cfi_def_cfa_register 6
	movq	%rdi, -8(%rbp)
	nop
	popq	%rbp
	.cfi_def_cfa 7, 8
	ret
	.cfi_endproc
.LFE7364:
	.size	_ZN9__gnu_cxx13new_allocatorI4infoEC2Ev, .-_ZN9__gnu_cxx13new_allocatorI4infoEC2Ev
	.weak	_ZN9__gnu_cxx13new_allocatorI4infoEC1Ev
	.set	_ZN9__gnu_cxx13new_allocatorI4infoEC1Ev,_ZN9__gnu_cxx13new_allocatorI4infoEC2Ev
	.section	.text._ZN9__gnu_cxx13new_allocatorI4infoE10deallocateEPS1_m,"axG",@progbits,_ZN9__gnu_cxx13new_allocatorI4infoE10deallocateEPS1_m,comdat
	.align 2
	.weak	_ZN9__gnu_cxx13new_allocatorI4infoE10deallocateEPS1_m
	.type	_ZN9__gnu_cxx13new_allocatorI4infoE10deallocateEPS1_m, @function
_ZN9__gnu_cxx13new_allocatorI4infoE10deallocateEPS1_m:
.LFB7366:
	.cfi_startproc
	pushq	%rbp
	.cfi_def_cfa_offset 16
	.cfi_offset 6, -16
	movq	%rsp, %rbp
	.cfi_def_cfa_register 6
	subq	$32, %rsp
	movq	%rdi, -8(%rbp)
	movq	%rsi, -16(%rbp)
	movq	%rdx, -24(%rbp)
	movq	-16(%rbp), %rax
	movq	%rax, %rdi
	call	_ZdlPv
	nop
	leave
	.cfi_def_cfa 7, 8
	ret
	.cfi_endproc
.LFE7366:
	.size	_ZN9__gnu_cxx13new_allocatorI4infoE10deallocateEPS1_m, .-_ZN9__gnu_cxx13new_allocatorI4infoE10deallocateEPS1_m
	.section	.text._ZNSt16allocator_traitsISaI4infoEE8max_sizeERKS1_,"axG",@progbits,_ZNSt16allocator_traitsISaI4infoEE8max_sizeERKS1_,comdat
	.weak	_ZNSt16allocator_traitsISaI4infoEE8max_sizeERKS1_
	.type	_ZNSt16allocator_traitsISaI4infoEE8max_sizeERKS1_, @function
_ZNSt16allocator_traitsISaI4infoEE8max_sizeERKS1_:
.LFB7370:
	.cfi_startproc
	pushq	%rbp
	.cfi_def_cfa_offset 16
	.cfi_offset 6, -16
	movq	%rsp, %rbp
	.cfi_def_cfa_register 6
	subq	$16, %rsp
	movq	%rdi, -8(%rbp)
	movq	-8(%rbp), %rax
	movq	%rax, %rdi
	call	_ZNK9__gnu_cxx13new_allocatorI4infoE8max_sizeEv
	leave
	.cfi_def_cfa 7, 8
	ret
	.cfi_endproc
.LFE7370:
	.size	_ZNSt16allocator_traitsISaI4infoEE8max_sizeERKS1_, .-_ZNSt16allocator_traitsISaI4infoEE8max_sizeERKS1_
	.section	.text._ZNKSt12_Vector_baseI4infoSaIS0_EE19_M_get_Tp_allocatorEv,"axG",@progbits,_ZNKSt12_Vector_baseI4infoSaIS0_EE19_M_get_Tp_allocatorEv,comdat
	.align 2
	.weak	_ZNKSt12_Vector_baseI4infoSaIS0_EE19_M_get_Tp_allocatorEv
	.type	_ZNKSt12_Vector_baseI4infoSaIS0_EE19_M_get_Tp_allocatorEv, @function
_ZNKSt12_Vector_baseI4infoSaIS0_EE19_M_get_Tp_allocatorEv:
.LFB7371:
	.cfi_startproc
	pushq	%rbp
	.cfi_def_cfa_offset 16
	.cfi_offset 6, -16
	movq	%rsp, %rbp
	.cfi_def_cfa_register 6
	movq	%rdi, -8(%rbp)
	movq	-8(%rbp), %rax
	popq	%rbp
	.cfi_def_cfa 7, 8
	ret
	.cfi_endproc
.LFE7371:
	.size	_ZNKSt12_Vector_baseI4infoSaIS0_EE19_M_get_Tp_allocatorEv, .-_ZNKSt12_Vector_baseI4infoSaIS0_EE19_M_get_Tp_allocatorEv
	.section	.text._ZN9__gnu_cxx13new_allocatorI4infoE8allocateEmPKv,"axG",@progbits,_ZN9__gnu_cxx13new_allocatorI4infoE8allocateEmPKv,comdat
	.align 2
	.weak	_ZN9__gnu_cxx13new_allocatorI4infoE8allocateEmPKv
	.type	_ZN9__gnu_cxx13new_allocatorI4infoE8allocateEmPKv, @function
_ZN9__gnu_cxx13new_allocatorI4infoE8allocateEmPKv:
.LFB7372:
	.cfi_startproc
	pushq	%rbp
	.cfi_def_cfa_offset 16
	.cfi_offset 6, -16
	movq	%rsp, %rbp
	.cfi_def_cfa_register 6
	subq	$32, %rsp
	movq	%rdi, -8(%rbp)
	movq	%rsi, -16(%rbp)
	movq	%rdx, -24(%rbp)
	movq	-8(%rbp), %rax
	movq	%rax, %rdi
	call	_ZNK9__gnu_cxx13new_allocatorI4infoE8max_sizeEv
	cmpq	-16(%rbp), %rax
	setb	%al
	testb	%al, %al
	je	.L272
	call	_ZSt17__throw_bad_allocv
.L272:
	movq	-16(%rbp), %rdx
	movq	%rdx, %rax
	salq	$3, %rax
	addq	%rdx, %rax
	salq	$3, %rax
	movq	%rax, %rdi
	call	_Znwm
	leave
	.cfi_def_cfa 7, 8
	ret
	.cfi_endproc
.LFE7372:
	.size	_ZN9__gnu_cxx13new_allocatorI4infoE8allocateEmPKv, .-_ZN9__gnu_cxx13new_allocatorI4infoE8allocateEmPKv
	.section	.text._ZNSt13move_iteratorIP4infoEC2ES1_,"axG",@progbits,_ZNSt13move_iteratorIP4infoEC5ES1_,comdat
	.align 2
	.weak	_ZNSt13move_iteratorIP4infoEC2ES1_
	.type	_ZNSt13move_iteratorIP4infoEC2ES1_, @function
_ZNSt13move_iteratorIP4infoEC2ES1_:
.LFB7374:
	.cfi_startproc
	pushq	%rbp
	.cfi_def_cfa_offset 16
	.cfi_offset 6, -16
	movq	%rsp, %rbp
	.cfi_def_cfa_register 6
	movq	%rdi, -8(%rbp)
	movq	%rsi, -16(%rbp)
	movq	-8(%rbp), %rax
	movq	-16(%rbp), %rdx
	movq	%rdx, (%rax)
	nop
	popq	%rbp
	.cfi_def_cfa 7, 8
	ret
	.cfi_endproc
.LFE7374:
	.size	_ZNSt13move_iteratorIP4infoEC2ES1_, .-_ZNSt13move_iteratorIP4infoEC2ES1_
	.weak	_ZNSt13move_iteratorIP4infoEC1ES1_
	.set	_ZNSt13move_iteratorIP4infoEC1ES1_,_ZNSt13move_iteratorIP4infoEC2ES1_
	.section	.text._ZSt18uninitialized_copyISt13move_iteratorIP4infoES2_ET0_T_S5_S4_,"axG",@progbits,_ZSt18uninitialized_copyISt13move_iteratorIP4infoES2_ET0_T_S5_S4_,comdat
	.weak	_ZSt18uninitialized_copyISt13move_iteratorIP4infoES2_ET0_T_S5_S4_
	.type	_ZSt18uninitialized_copyISt13move_iteratorIP4infoES2_ET0_T_S5_S4_, @function
_ZSt18uninitialized_copyISt13move_iteratorIP4infoES2_ET0_T_S5_S4_:
.LFB7376:
	.cfi_startproc
	pushq	%rbp
	.cfi_def_cfa_offset 16
	.cfi_offset 6, -16
	movq	%rsp, %rbp
	.cfi_def_cfa_register 6
	subq	$48, %rsp
	movq	%rdi, -32(%rbp)
	movq	%rsi, -48(%rbp)
	movq	%rdx, -40(%rbp)
	movb	$1, -1(%rbp)
	movq	-40(%rbp), %rdx
	movq	-48(%rbp), %rcx
	movq	-32(%rbp), %rax
	movq	%rcx, %rsi
	movq	%rax, %rdi
	call	_ZNSt20__uninitialized_copyILb0EE13__uninit_copyISt13move_iteratorIP4infoES4_EET0_T_S7_S6_
	leave
	.cfi_def_cfa 7, 8
	ret
	.cfi_endproc
.LFE7376:
	.size	_ZSt18uninitialized_copyISt13move_iteratorIP4infoES2_ET0_T_S5_S4_, .-_ZSt18uninitialized_copyISt13move_iteratorIP4infoES2_ET0_T_S5_S4_
	.section	.text._ZNSt12_Destroy_auxILb0EE9__destroyIP4infoEEvT_S4_,"axG",@progbits,_ZNSt12_Destroy_auxILb0EE9__destroyIP4infoEEvT_S4_,comdat
	.weak	_ZNSt12_Destroy_auxILb0EE9__destroyIP4infoEEvT_S4_
	.type	_ZNSt12_Destroy_auxILb0EE9__destroyIP4infoEEvT_S4_, @function
_ZNSt12_Destroy_auxILb0EE9__destroyIP4infoEEvT_S4_:
.LFB7377:
	.cfi_startproc
	pushq	%rbp
	.cfi_def_cfa_offset 16
	.cfi_offset 6, -16
	movq	%rsp, %rbp
	.cfi_def_cfa_register 6
	subq	$16, %rsp
	movq	%rdi, -8(%rbp)
	movq	%rsi, -16(%rbp)
.L279:
	movq	-8(%rbp), %rax
	cmpq	-16(%rbp), %rax
	je	.L280
	movq	-8(%rbp), %rax
	movq	%rax, %rdi
	call	_ZSt11__addressofI4infoEPT_RS1_
	movq	%rax, %rdi
	call	_ZSt8_DestroyI4infoEvPT_
	addq	$72, -8(%rbp)
	jmp	.L279
.L280:
	nop
	leave
	.cfi_def_cfa 7, 8
	ret
	.cfi_endproc
.LFE7377:
	.size	_ZNSt12_Destroy_auxILb0EE9__destroyIP4infoEEvT_S4_, .-_ZNSt12_Destroy_auxILb0EE9__destroyIP4infoEEvT_S4_
	.section	.text._ZNK9__gnu_cxx13new_allocatorI4infoE8max_sizeEv,"axG",@progbits,_ZNK9__gnu_cxx13new_allocatorI4infoE8max_sizeEv,comdat
	.align 2
	.weak	_ZNK9__gnu_cxx13new_allocatorI4infoE8max_sizeEv
	.type	_ZNK9__gnu_cxx13new_allocatorI4infoE8max_sizeEv, @function
_ZNK9__gnu_cxx13new_allocatorI4infoE8max_sizeEv:
.LFB7404:
	.cfi_startproc
	pushq	%rbp
	.cfi_def_cfa_offset 16
	.cfi_offset 6, -16
	movq	%rsp, %rbp
	.cfi_def_cfa_register 6
	movq	%rdi, -8(%rbp)
	movabsq	$256204778801521550, %rax
	popq	%rbp
	.cfi_def_cfa 7, 8
	ret
	.cfi_endproc
.LFE7404:
	.size	_ZNK9__gnu_cxx13new_allocatorI4infoE8max_sizeEv, .-_ZNK9__gnu_cxx13new_allocatorI4infoE8max_sizeEv
	.section	.text._ZNSt20__uninitialized_copyILb0EE13__uninit_copyISt13move_iteratorIP4infoES4_EET0_T_S7_S6_,"axG",@progbits,_ZNSt20__uninitialized_copyILb0EE13__uninit_copyISt13move_iteratorIP4infoES4_EET0_T_S7_S6_,comdat
	.weak	_ZNSt20__uninitialized_copyILb0EE13__uninit_copyISt13move_iteratorIP4infoES4_EET0_T_S7_S6_
	.type	_ZNSt20__uninitialized_copyILb0EE13__uninit_copyISt13move_iteratorIP4infoES4_EET0_T_S7_S6_, @function
_ZNSt20__uninitialized_copyILb0EE13__uninit_copyISt13move_iteratorIP4infoES4_EET0_T_S7_S6_:
.LFB7405:
	.cfi_startproc
	.cfi_personality 0x3,__gxx_personality_v0
	.cfi_lsda 0x3,.LLSDA7405
	pushq	%rbp
	.cfi_def_cfa_offset 16
	.cfi_offset 6, -16
	movq	%rsp, %rbp
	.cfi_def_cfa_register 6
	pushq	%rbx
	subq	$56, %rsp
	.cfi_offset 3, -24
	movq	%rdi, -48(%rbp)
	movq	%rsi, -64(%rbp)
	movq	%rdx, -56(%rbp)
	movq	-56(%rbp), %rax
	movq	%rax, -24(%rbp)
.L285:
	leaq	-64(%rbp), %rdx
	leaq	-48(%rbp), %rax
	movq	%rdx, %rsi
	movq	%rax, %rdi
.LEHB59:
	call	_ZStneIP4infoEbRKSt13move_iteratorIT_ES6_
.LEHE59:
	testb	%al, %al
	je	.L284
	leaq	-48(%rbp), %rax
	movq	%rax, %rdi
	call	_ZNKSt13move_iteratorIP4infoEdeEv
	movq	%rax, %rbx
	movq	-24(%rbp), %rax
	movq	%rax, %rdi
	call	_ZSt11__addressofI4infoEPT_RS1_
	movq	%rbx, %rsi
	movq	%rax, %rdi
	call	_ZSt10_ConstructI4infoJS0_EEvPT_DpOT0_
	leaq	-48(%rbp), %rax
	movq	%rax, %rdi
	call	_ZNSt13move_iteratorIP4infoEppEv
	addq	$72, -24(%rbp)
	jmp	.L285
.L284:
	movq	-24(%rbp), %rax
	jmp	.L291
.L289:
	movq	%rax, %rdi
	call	__cxa_begin_catch
	movq	-24(%rbp), %rdx
	movq	-56(%rbp), %rax
	movq	%rdx, %rsi
	movq	%rax, %rdi
.LEHB60:
	call	_ZSt8_DestroyIP4infoEvT_S2_
	call	__cxa_rethrow
.LEHE60:
.L290:
	movq	%rax, %rbx
	call	__cxa_end_catch
	movq	%rbx, %rax
	movq	%rax, %rdi
.LEHB61:
	call	_Unwind_Resume
.LEHE61:
.L291:
	addq	$56, %rsp
	popq	%rbx
	popq	%rbp
	.cfi_def_cfa 7, 8
	ret
	.cfi_endproc
.LFE7405:
	.section	.gcc_except_table
	.align 4
.LLSDA7405:
	.byte	0xff
	.byte	0x3
	.uleb128 .LLSDATT7405-.LLSDATTD7405
.LLSDATTD7405:
	.byte	0x1
	.uleb128 .LLSDACSE7405-.LLSDACSB7405
.LLSDACSB7405:
	.uleb128 .LEHB59-.LFB7405
	.uleb128 .LEHE59-.LEHB59
	.uleb128 .L289-.LFB7405
	.uleb128 0x1
	.uleb128 .LEHB60-.LFB7405
	.uleb128 .LEHE60-.LEHB60
	.uleb128 .L290-.LFB7405
	.uleb128 0
	.uleb128 .LEHB61-.LFB7405
	.uleb128 .LEHE61-.LEHB61
	.uleb128 0
	.uleb128 0
.LLSDACSE7405:
	.byte	0x1
	.byte	0
	.align 4
	.long	0

.LLSDATT7405:
	.section	.text._ZNSt20__uninitialized_copyILb0EE13__uninit_copyISt13move_iteratorIP4infoES4_EET0_T_S7_S6_,"axG",@progbits,_ZNSt20__uninitialized_copyILb0EE13__uninit_copyISt13move_iteratorIP4infoES4_EET0_T_S7_S6_,comdat
	.size	_ZNSt20__uninitialized_copyILb0EE13__uninit_copyISt13move_iteratorIP4infoES4_EET0_T_S7_S6_, .-_ZNSt20__uninitialized_copyILb0EE13__uninit_copyISt13move_iteratorIP4infoES4_EET0_T_S7_S6_
	.section	.text._ZSt11__addressofI4infoEPT_RS1_,"axG",@progbits,_ZSt11__addressofI4infoEPT_RS1_,comdat
	.weak	_ZSt11__addressofI4infoEPT_RS1_
	.type	_ZSt11__addressofI4infoEPT_RS1_, @function
_ZSt11__addressofI4infoEPT_RS1_:
.LFB7406:
	.cfi_startproc
	pushq	%rbp
	.cfi_def_cfa_offset 16
	.cfi_offset 6, -16
	movq	%rsp, %rbp
	.cfi_def_cfa_register 6
	movq	%rdi, -8(%rbp)
	movq	-8(%rbp), %rax
	popq	%rbp
	.cfi_def_cfa 7, 8
	ret
	.cfi_endproc
.LFE7406:
	.size	_ZSt11__addressofI4infoEPT_RS1_, .-_ZSt11__addressofI4infoEPT_RS1_
	.section	.text._ZSt8_DestroyI4infoEvPT_,"axG",@progbits,_ZSt8_DestroyI4infoEvPT_,comdat
	.weak	_ZSt8_DestroyI4infoEvPT_
	.type	_ZSt8_DestroyI4infoEvPT_, @function
_ZSt8_DestroyI4infoEvPT_:
.LFB7407:
	.cfi_startproc
	pushq	%rbp
	.cfi_def_cfa_offset 16
	.cfi_offset 6, -16
	movq	%rsp, %rbp
	.cfi_def_cfa_register 6
	subq	$16, %rsp
	movq	%rdi, -8(%rbp)
	movq	-8(%rbp), %rax
	movq	%rax, %rdi
	call	_ZN4infoD1Ev
	nop
	leave
	.cfi_def_cfa 7, 8
	ret
	.cfi_endproc
.LFE7407:
	.size	_ZSt8_DestroyI4infoEvPT_, .-_ZSt8_DestroyI4infoEvPT_
	.section	.text._ZStneIP4infoEbRKSt13move_iteratorIT_ES6_,"axG",@progbits,_ZStneIP4infoEbRKSt13move_iteratorIT_ES6_,comdat
	.weak	_ZStneIP4infoEbRKSt13move_iteratorIT_ES6_
	.type	_ZStneIP4infoEbRKSt13move_iteratorIT_ES6_, @function
_ZStneIP4infoEbRKSt13move_iteratorIT_ES6_:
.LFB7416:
	.cfi_startproc
	pushq	%rbp
	.cfi_def_cfa_offset 16
	.cfi_offset 6, -16
	movq	%rsp, %rbp
	.cfi_def_cfa_register 6
	subq	$16, %rsp
	movq	%rdi, -8(%rbp)
	movq	%rsi, -16(%rbp)
	movq	-16(%rbp), %rdx
	movq	-8(%rbp), %rax
	movq	%rdx, %rsi
	movq	%rax, %rdi
	call	_ZSteqIP4infoEbRKSt13move_iteratorIT_ES6_
	xorl	$1, %eax
	leave
	.cfi_def_cfa 7, 8
	ret
	.cfi_endproc
.LFE7416:
	.size	_ZStneIP4infoEbRKSt13move_iteratorIT_ES6_, .-_ZStneIP4infoEbRKSt13move_iteratorIT_ES6_
	.section	.text._ZNSt13move_iteratorIP4infoEppEv,"axG",@progbits,_ZNSt13move_iteratorIP4infoEppEv,comdat
	.align 2
	.weak	_ZNSt13move_iteratorIP4infoEppEv
	.type	_ZNSt13move_iteratorIP4infoEppEv, @function
_ZNSt13move_iteratorIP4infoEppEv:
.LFB7417:
	.cfi_startproc
	pushq	%rbp
	.cfi_def_cfa_offset 16
	.cfi_offset 6, -16
	movq	%rsp, %rbp
	.cfi_def_cfa_register 6
	movq	%rdi, -8(%rbp)
	movq	-8(%rbp), %rax
	movq	(%rax), %rax
	leaq	72(%rax), %rdx
	movq	-8(%rbp), %rax
	movq	%rdx, (%rax)
	movq	-8(%rbp), %rax
	popq	%rbp
	.cfi_def_cfa 7, 8
	ret
	.cfi_endproc
.LFE7417:
	.size	_ZNSt13move_iteratorIP4infoEppEv, .-_ZNSt13move_iteratorIP4infoEppEv
	.section	.text._ZNKSt13move_iteratorIP4infoEdeEv,"axG",@progbits,_ZNKSt13move_iteratorIP4infoEdeEv,comdat
	.align 2
	.weak	_ZNKSt13move_iteratorIP4infoEdeEv
	.type	_ZNKSt13move_iteratorIP4infoEdeEv, @function
_ZNKSt13move_iteratorIP4infoEdeEv:
.LFB7418:
	.cfi_startproc
	pushq	%rbp
	.cfi_def_cfa_offset 16
	.cfi_offset 6, -16
	movq	%rsp, %rbp
	.cfi_def_cfa_register 6
	movq	%rdi, -8(%rbp)
	movq	-8(%rbp), %rax
	movq	(%rax), %rax
	popq	%rbp
	.cfi_def_cfa 7, 8
	ret
	.cfi_endproc
.LFE7418:
	.size	_ZNKSt13move_iteratorIP4infoEdeEv, .-_ZNKSt13move_iteratorIP4infoEdeEv
	.section	.text._ZSt7forwardI4infoEOT_RNSt16remove_referenceIS1_E4typeE,"axG",@progbits,_ZSt7forwardI4infoEOT_RNSt16remove_referenceIS1_E4typeE,comdat
	.weak	_ZSt7forwardI4infoEOT_RNSt16remove_referenceIS1_E4typeE
	.type	_ZSt7forwardI4infoEOT_RNSt16remove_referenceIS1_E4typeE, @function
_ZSt7forwardI4infoEOT_RNSt16remove_referenceIS1_E4typeE:
.LFB7420:
	.cfi_startproc
	pushq	%rbp
	.cfi_def_cfa_offset 16
	.cfi_offset 6, -16
	movq	%rsp, %rbp
	.cfi_def_cfa_register 6
	movq	%rdi, -8(%rbp)
	movq	-8(%rbp), %rax
	popq	%rbp
	.cfi_def_cfa 7, 8
	ret
	.cfi_endproc
.LFE7420:
	.size	_ZSt7forwardI4infoEOT_RNSt16remove_referenceIS1_E4typeE, .-_ZSt7forwardI4infoEOT_RNSt16remove_referenceIS1_E4typeE
	.section	.text._ZN4infoC2EOS_,"axG",@progbits,_ZN4infoC5EOS_,comdat
	.align 2
	.weak	_ZN4infoC2EOS_
	.type	_ZN4infoC2EOS_, @function
_ZN4infoC2EOS_:
.LFB7422:
	.cfi_startproc
	pushq	%rbp
	.cfi_def_cfa_offset 16
	.cfi_offset 6, -16
	movq	%rsp, %rbp
	.cfi_def_cfa_register 6
	subq	$16, %rsp
	movq	%rdi, -8(%rbp)
	movq	%rsi, -16(%rbp)
	movq	-16(%rbp), %rdx
	movq	-8(%rbp), %rax
	movq	%rdx, %rsi
	movq	%rax, %rdi
	call	_ZNSt7__cxx1112basic_stringIcSt11char_traitsIcESaIcEEC1EOS4_
	movq	-16(%rbp), %rax
	leaq	32(%rax), %rdx
	movq	-8(%rbp), %rax
	addq	$32, %rax
	movq	%rdx, %rsi
	movq	%rax, %rdi
	call	_ZNSt7__cxx1112basic_stringIcSt11char_traitsIcESaIcEEC1EOS4_
	movq	-16(%rbp), %rax
	movl	64(%rax), %edx
	movq	-8(%rbp), %rax
	movl	%edx, 64(%rax)
	nop
	leave
	.cfi_def_cfa 7, 8
	ret
	.cfi_endproc
.LFE7422:
	.size	_ZN4infoC2EOS_, .-_ZN4infoC2EOS_
	.weak	_ZN4infoC1EOS_
	.set	_ZN4infoC1EOS_,_ZN4infoC2EOS_
	.section	.text._ZSt10_ConstructI4infoJS0_EEvPT_DpOT0_,"axG",@progbits,_ZSt10_ConstructI4infoJS0_EEvPT_DpOT0_,comdat
	.weak	_ZSt10_ConstructI4infoJS0_EEvPT_DpOT0_
	.type	_ZSt10_ConstructI4infoJS0_EEvPT_DpOT0_, @function
_ZSt10_ConstructI4infoJS0_EEvPT_DpOT0_:
.LFB7419:
	.cfi_startproc
	pushq	%rbp
	.cfi_def_cfa_offset 16
	.cfi_offset 6, -16
	movq	%rsp, %rbp
	.cfi_def_cfa_register 6
	pushq	%rbx
	subq	$24, %rsp
	.cfi_offset 3, -24
	movq	%rdi, -24(%rbp)
	movq	%rsi, -32(%rbp)
	movq	-32(%rbp), %rax
	movq	%rax, %rdi
	call	_ZSt7forwardI4infoEOT_RNSt16remove_referenceIS1_E4typeE
	movq	%rax, %rbx
	movq	-24(%rbp), %rax
	movq	%rax, %rsi
	movl	$72, %edi
	call	_ZnwmPv
	testq	%rax, %rax
	je	.L307
	movq	%rbx, %rsi
	movq	%rax, %rdi
	call	_ZN4infoC1EOS_
.L307:
	nop
	addq	$24, %rsp
	popq	%rbx
	popq	%rbp
	.cfi_def_cfa 7, 8
	ret
	.cfi_endproc
.LFE7419:
	.size	_ZSt10_ConstructI4infoJS0_EEvPT_DpOT0_, .-_ZSt10_ConstructI4infoJS0_EEvPT_DpOT0_
	.weak	_ZSt10_ConstructI4infoIS0_EEvPT_DpOT0_
	.set	_ZSt10_ConstructI4infoIS0_EEvPT_DpOT0_,_ZSt10_ConstructI4infoJS0_EEvPT_DpOT0_
	.section	.text._ZSteqIP4infoEbRKSt13move_iteratorIT_ES6_,"axG",@progbits,_ZSteqIP4infoEbRKSt13move_iteratorIT_ES6_,comdat
	.weak	_ZSteqIP4infoEbRKSt13move_iteratorIT_ES6_
	.type	_ZSteqIP4infoEbRKSt13move_iteratorIT_ES6_, @function
_ZSteqIP4infoEbRKSt13move_iteratorIT_ES6_:
.LFB7426:
	.cfi_startproc
	pushq	%rbp
	.cfi_def_cfa_offset 16
	.cfi_offset 6, -16
	movq	%rsp, %rbp
	.cfi_def_cfa_register 6
	pushq	%rbx
	subq	$24, %rsp
	.cfi_offset 3, -24
	movq	%rdi, -24(%rbp)
	movq	%rsi, -32(%rbp)
	movq	-24(%rbp), %rax
	movq	%rax, %rdi
	call	_ZNKSt13move_iteratorIP4infoE4baseEv
	movq	%rax, %rbx
	movq	-32(%rbp), %rax
	movq	%rax, %rdi
	call	_ZNKSt13move_iteratorIP4infoE4baseEv
	cmpq	%rax, %rbx
	sete	%al
	addq	$24, %rsp
	popq	%rbx
	popq	%rbp
	.cfi_def_cfa 7, 8
	ret
	.cfi_endproc
.LFE7426:
	.size	_ZSteqIP4infoEbRKSt13move_iteratorIT_ES6_, .-_ZSteqIP4infoEbRKSt13move_iteratorIT_ES6_
	.section	.text._ZNKSt13move_iteratorIP4infoE4baseEv,"axG",@progbits,_ZNKSt13move_iteratorIP4infoE4baseEv,comdat
	.align 2
	.weak	_ZNKSt13move_iteratorIP4infoE4baseEv
	.type	_ZNKSt13move_iteratorIP4infoE4baseEv, @function
_ZNKSt13move_iteratorIP4infoE4baseEv:
.LFB7427:
	.cfi_startproc
	pushq	%rbp
	.cfi_def_cfa_offset 16
	.cfi_offset 6, -16
	movq	%rsp, %rbp
	.cfi_def_cfa_register 6
	movq	%rdi, -8(%rbp)
	movq	-8(%rbp), %rax
	movq	(%rax), %rax
	popq	%rbp
	.cfi_def_cfa 7, 8
	ret
	.cfi_endproc
.LFE7427:
	.size	_ZNKSt13move_iteratorIP4infoE4baseEv, .-_ZNKSt13move_iteratorIP4infoE4baseEv
	.text
	.type	_Z41__static_initialization_and_destruction_0ii, @function
_Z41__static_initialization_and_destruction_0ii:
.LFB7428:
	.cfi_startproc
	pushq	%rbp
	.cfi_def_cfa_offset 16
	.cfi_offset 6, -16
	movq	%rsp, %rbp
	.cfi_def_cfa_register 6
	subq	$16, %rsp
	movl	%edi, -4(%rbp)
	movl	%esi, -8(%rbp)
	cmpl	$1, -4(%rbp)
	jne	.L314
	cmpl	$65535, -8(%rbp)
	jne	.L314
	movl	$_ZStL8__ioinit, %edi
	call	_ZNSt8ios_base4InitC1Ev
	movl	$__dso_handle, %edx
	movl	$_ZStL8__ioinit, %esi
	movl	$_ZNSt8ios_base4InitD1Ev, %edi
	call	__cxa_atexit
	movl	$entry, %edi
	call	_ZNSt6vectorI4infoSaIS0_EEC1Ev
	movl	$__dso_handle, %edx
	movl	$entry, %esi
	movl	$_ZNSt6vectorI4infoSaIS0_EED1Ev, %edi
	call	__cxa_atexit
.L314:
	nop
	leave
	.cfi_def_cfa 7, 8
	ret
	.cfi_endproc
.LFE7428:
	.size	_Z41__static_initialization_and_destruction_0ii, .-_Z41__static_initialization_and_destruction_0ii
	.section	.text._ZNSt6vectorI4infoSaIS0_EED2Ev,"axG",@progbits,_ZNSt6vectorI4infoSaIS0_EED5Ev,comdat
	.align 2
	.weak	_ZNSt6vectorI4infoSaIS0_EED2Ev
	.type	_ZNSt6vectorI4infoSaIS0_EED2Ev, @function
_ZNSt6vectorI4infoSaIS0_EED2Ev:
.LFB7430:
	.cfi_startproc
	.cfi_personality 0x3,__gxx_personality_v0
	.cfi_lsda 0x3,.LLSDA7430
	pushq	%rbp
	.cfi_def_cfa_offset 16
	.cfi_offset 6, -16
	movq	%rsp, %rbp
	.cfi_def_cfa_register 6
	subq	$16, %rsp
	movq	%rdi, -8(%rbp)
	movq	-8(%rbp), %rax
	movq	%rax, %rdi
	call	_ZNSt12_Vector_baseI4infoSaIS0_EE19_M_get_Tp_allocatorEv
	movq	%rax, %rdx
	movq	-8(%rbp), %rax
	movq	8(%rax), %rcx
	movq	-8(%rbp), %rax
	movq	(%rax), %rax
	movq	%rcx, %rsi
	movq	%rax, %rdi
	call	_ZSt8_DestroyIP4infoS0_EvT_S2_RSaIT0_E
	movq	-8(%rbp), %rax
	movq	%rax, %rdi
	call	_ZNSt12_Vector_baseI4infoSaIS0_EED2Ev
	nop
	leave
	.cfi_def_cfa 7, 8
	ret
	.cfi_endproc
.LFE7430:
	.section	.gcc_except_table
.LLSDA7430:
	.byte	0xff
	.byte	0xff
	.byte	0x1
	.uleb128 .LLSDACSE7430-.LLSDACSB7430
.LLSDACSB7430:
.LLSDACSE7430:
	.section	.text._ZNSt6vectorI4infoSaIS0_EED2Ev,"axG",@progbits,_ZNSt6vectorI4infoSaIS0_EED5Ev,comdat
	.size	_ZNSt6vectorI4infoSaIS0_EED2Ev, .-_ZNSt6vectorI4infoSaIS0_EED2Ev
	.weak	_ZNSt6vectorI4infoSaIS0_EED1Ev
	.set	_ZNSt6vectorI4infoSaIS0_EED1Ev,_ZNSt6vectorI4infoSaIS0_EED2Ev
	.text
	.type	_GLOBAL__sub_I_entry, @function
_GLOBAL__sub_I_entry:
.LFB7432:
	.cfi_startproc
	pushq	%rbp
	.cfi_def_cfa_offset 16
	.cfi_offset 6, -16
	movq	%rsp, %rbp
	.cfi_def_cfa_register 6
	movl	$65535, %esi
	movl	$1, %edi
	call	_Z41__static_initialization_and_destruction_0ii
	popq	%rbp
	.cfi_def_cfa 7, 8
	ret
	.cfi_endproc
.LFE7432:
	.size	_GLOBAL__sub_I_entry, .-_GLOBAL__sub_I_entry
	.section	.init_array,"aw"
	.align 8
	.quad	_GLOBAL__sub_I_entry
	.hidden	__dso_handle
	.ident	"GCC: (Ubuntu 5.4.0-6ubuntu1~16.04.4) 5.4.0 20160609"
	.section	.note.GNU-stack,"",@progbits
