	.file	"main.cpp"
# GNU C++14 (Ubuntu 5.4.0-6ubuntu1~16.04.4) version 5.4.0 20160609 (x86_64-linux-gnu)
#	compiled by GNU C version 5.4.0 20160609, GMP version 6.1.0, MPFR version 3.1.4, MPC version 1.0.3
# GGC heuristics: --param ggc-min-expand=100 --param ggc-min-heapsize=131072
# options passed:  -imultiarch x86_64-linux-gnu -D_GNU_SOURCE main.cpp
# -mtune=generic -march=x86-64 -g -O2 -std=c++14 -fverbose-asm
# -fstack-protector-strong -Wformat -Wformat-security
# options enabled:  -faggressive-loop-optimizations -falign-labels
# -fasynchronous-unwind-tables -fauto-inc-dec -fbranch-count-reg
# -fcaller-saves -fchkp-check-incomplete-type -fchkp-check-read
# -fchkp-check-write -fchkp-instrument-calls -fchkp-narrow-bounds
# -fchkp-optimize -fchkp-store-bounds -fchkp-use-static-bounds
# -fchkp-use-static-const-bounds -fchkp-use-wrappers
# -fcombine-stack-adjustments -fcommon -fcompare-elim -fcprop-registers
# -fcrossjumping -fcse-follow-jumps -fdefer-pop
# -fdelete-null-pointer-checks -fdevirtualize -fdevirtualize-speculatively
# -fdwarf2-cfi-asm -fearly-inlining -feliminate-unused-debug-types
# -fexceptions -fexpensive-optimizations -fforward-propagate -ffunction-cse
# -fgcse -fgcse-lm -fgnu-runtime -fgnu-unique -fguess-branch-probability
# -fhoist-adjacent-loads -fident -fif-conversion -fif-conversion2
# -findirect-inlining -finline -finline-atomics
# -finline-functions-called-once -finline-small-functions -fipa-cp
# -fipa-cp-alignment -fipa-icf -fipa-icf-functions -fipa-icf-variables
# -fipa-profile -fipa-pure-const -fipa-ra -fipa-reference -fipa-sra
# -fira-hoist-pressure -fira-share-save-slots -fira-share-spill-slots
# -fisolate-erroneous-paths-dereference -fivopts -fkeep-static-consts
# -fleading-underscore -flifetime-dse -flra-remat -flto-odr-type-merging
# -fmath-errno -fmerge-constants -fmerge-debug-strings
# -fmove-loop-invariants -fomit-frame-pointer -foptimize-sibling-calls
# -foptimize-strlen -fpartial-inlining -fpeephole -fpeephole2
# -fprefetch-loop-arrays -free -freg-struct-return -freorder-blocks
# -freorder-blocks-and-partition -freorder-functions -frerun-cse-after-loop
# -fsched-critical-path-heuristic -fsched-dep-count-heuristic
# -fsched-group-heuristic -fsched-interblock -fsched-last-insn-heuristic
# -fsched-rank-heuristic -fsched-spec -fsched-spec-insn-heuristic
# -fsched-stalled-insns-dep -fschedule-fusion -fschedule-insns2
# -fsemantic-interposition -fshow-column -fshrink-wrap -fsigned-zeros
# -fsplit-ivs-in-unroller -fsplit-wide-types -fssa-phiopt
# -fstack-protector-strong -fstdarg-opt -fstrict-aliasing -fstrict-overflow
# -fstrict-volatile-bitfields -fsync-libcalls -fthread-jumps
# -ftoplevel-reorder -ftrapping-math -ftree-bit-ccp -ftree-builtin-call-dce
# -ftree-ccp -ftree-ch -ftree-coalesce-vars -ftree-copy-prop
# -ftree-copyrename -ftree-cselim -ftree-dce -ftree-dominator-opts
# -ftree-dse -ftree-forwprop -ftree-fre -ftree-loop-if-convert
# -ftree-loop-im -ftree-loop-ivcanon -ftree-loop-optimize
# -ftree-parallelize-loops= -ftree-phiprop -ftree-pre -ftree-pta
# -ftree-reassoc -ftree-scev-cprop -ftree-sink -ftree-slsr -ftree-sra
# -ftree-switch-conversion -ftree-tail-merge -ftree-ter -ftree-vrp
# -funit-at-a-time -funwind-tables -fvar-tracking
# -fvar-tracking-assignments -fverbose-asm -fzero-initialized-in-bss
# -m128bit-long-double -m64 -m80387 -malign-stringops
# -mavx256-split-unaligned-load -mavx256-split-unaligned-store
# -mfancy-math-387 -mfp-ret-in-387 -mfxsr -mglibc -mieee-fp
# -mlong-double-80 -mmmx -mno-sse4 -mpush-args -mred-zone -msse -msse2
# -mtls-direct-seg-refs -mvzeroupper

	.text
.Ltext0:
	.section	.text.unlikely._ZNKSt5ctypeIcE8do_widenEc,"axG",@progbits,_ZNKSt5ctypeIcE8do_widenEc,comdat
	.align 2
.LCOLDB0:
	.section	.text._ZNKSt5ctypeIcE8do_widenEc,"axG",@progbits,_ZNKSt5ctypeIcE8do_widenEc,comdat
.LHOTB0:
	.align 2
	.p2align 4,,15
	.section	.text.unlikely._ZNKSt5ctypeIcE8do_widenEc,"axG",@progbits,_ZNKSt5ctypeIcE8do_widenEc,comdat
.Ltext_cold0:
	.section	.text._ZNKSt5ctypeIcE8do_widenEc,"axG",@progbits,_ZNKSt5ctypeIcE8do_widenEc,comdat
	.weak	_ZNKSt5ctypeIcE8do_widenEc
	.type	_ZNKSt5ctypeIcE8do_widenEc, @function
_ZNKSt5ctypeIcE8do_widenEc:
.LFB1253:
	.file 1 "/usr/include/c++/5/bits/locale_facets.h"
	.loc 1 1082 0
	.cfi_startproc
.LVL0:
	.loc 1 1083 0
	movl	%esi, %eax	# __c,
	ret
	.cfi_endproc
.LFE1253:
	.size	_ZNKSt5ctypeIcE8do_widenEc, .-_ZNKSt5ctypeIcE8do_widenEc
	.section	.text.unlikely._ZNKSt5ctypeIcE8do_widenEc,"axG",@progbits,_ZNKSt5ctypeIcE8do_widenEc,comdat
.LCOLDE0:
	.section	.text._ZNKSt5ctypeIcE8do_widenEc,"axG",@progbits,_ZNKSt5ctypeIcE8do_widenEc,comdat
.LHOTE0:
	.section	.rodata.str1.8,"aMS",@progbits,1
	.align 8
.LC1:
	.string	"basic_string::_M_construct null not valid"
	.section	.text.unlikely,"ax",@progbits
	.align 2
.LCOLDB2:
	.text
.LHOTB2:
	.align 2
	.p2align 4,,15
	.type	_ZNSt7__cxx1112basic_stringIcSt11char_traitsIcESaIcEE12_M_constructIPcEEvT_S7_St20forward_iterator_tag.isra.33, @function
_ZNSt7__cxx1112basic_stringIcSt11char_traitsIcESaIcEE12_M_constructIPcEEvT_S7_St20forward_iterator_tag.isra.33:
.LFB8690:
	.file 2 "/usr/include/c++/5/bits/basic_string.tcc"
	.loc 2 210 0
	.cfi_startproc
.LVL1:
	pushq	%r12	#
	.cfi_def_cfa_offset 16
	.cfi_offset 12, -16
	pushq	%rbp	#
	.cfi_def_cfa_offset 24
	.cfi_offset 6, -24
	movq	%rsi, %r12	# __beg, __beg
	pushq	%rbx	#
	.cfi_def_cfa_offset 32
	.cfi_offset 3, -32
	movq	%rdi, %rbp	# this, this
	subq	$16, %rsp	#,
	.cfi_def_cfa_offset 48
	.loc 2 210 0
	movq	%fs:40, %rax	#, tmp116
	movq	%rax, 8(%rsp)	# tmp116, D.94995
	xorl	%eax, %eax	# tmp116
	.loc 2 215 0
	testq	%rsi, %rsi	# __beg
	jne	.L5	#,
	testq	%rdx, %rdx	# __end
	je	.L5	#,
	.loc 2 216 0
	movl	$.LC1, %edi	#,
.LVL2:
	call	_ZSt19__throw_logic_errorPKc	#
.LVL3:
	.p2align 4,,10
	.p2align 3
.L5:
	.loc 2 219 0
	movq	%rdx, %rbx	# __end, D.94991
	subq	%r12, %rbx	# __beg, D.94991
	.loc 2 221 0
	cmpq	$15, %rbx	#, D.94991
	.loc 2 219 0
	movq	%rbx, (%rsp)	# D.94991, __dnew
	.loc 2 221 0
	ja	.L24	#,
	movq	0(%rbp), %rdx	# MEM[(char * *)this_8(D)], MEM[(char * *)this_8(D)]
.LVL4:
.LBB2217:
.LBB2218:
.LBB2219:
	.file 3 "/usr/include/c++/5/bits/basic_string.h"
	.loc 3 296 0
	cmpq	$1, %rbx	#, D.94991
	movq	%rdx, %rdi	# MEM[(char * *)this_8(D)], D.94992
.LVL5:
	je	.L25	#,
.LVL6:
.LBB2220:
.LBB2221:
	.file 4 "/usr/include/c++/5/bits/char_traits.h"
	.loc 4 288 0
	testq	%rbx, %rbx	# D.94991
	jne	.L6	#,
.LVL7:
.L8:
.LBE2221:
.LBE2220:
.LBE2219:
.LBE2218:
.LBE2217:
	.loc 2 236 0
	movq	(%rsp), %rax	# __dnew, D.94991
.LVL8:
.LBB2228:
.LBB2229:
.LBB2230:
.LBB2231:
	.loc 3 131 0
	movq	%rax, 8(%rbp)	# D.94991, MEM[(size_type *)this_8(D) + 8B]
.LVL9:
.LBE2231:
.LBE2230:
.LBB2232:
.LBB2233:
	.loc 4 243 0
	movb	$0, (%rdx,%rax)	#, MEM[(char_type &)_15]
.LVL10:
.LBE2233:
.LBE2232:
.LBE2229:
.LBE2228:
	.loc 2 237 0
	movq	8(%rsp), %rax	# D.94995, tmp117
	xorq	%fs:40, %rax	#, tmp117
	jne	.L26	#,
	addq	$16, %rsp	#,
	.cfi_remember_state
	.cfi_def_cfa_offset 32
	popq	%rbx	#
	.cfi_def_cfa_offset 24
	popq	%rbp	#
	.cfi_def_cfa_offset 16
.LVL11:
	popq	%r12	#
	.cfi_def_cfa_offset 8
.LVL12:
	ret
.LVL13:
	.p2align 4,,10
	.p2align 3
.L24:
	.cfi_restore_state
	.loc 2 223 0
	movq	%rbp, %rdi	# this,
.LVL14:
	xorl	%edx, %edx	#
.LVL15:
	movq	%rsp, %rsi	#,
.LVL16:
	call	_ZNSt7__cxx1112basic_stringIcSt11char_traitsIcESaIcEE9_M_createERmm	#
.LVL17:
	movq	%rax, %rdi	#, D.94992
.LVL18:
.LBB2234:
.LBB2235:
	.loc 3 127 0
	movq	%rax, 0(%rbp)	# D.94992, MEM[(char * *)this_8(D)]
.LVL19:
.LBE2235:
.LBE2234:
.LBB2236:
.LBB2237:
	.loc 3 159 0
	movq	(%rsp), %rax	# __dnew, __dnew
	movq	%rax, 16(%rbp)	# __dnew, MEM[(size_type *)this_8(D) + 16B]
.LVL20:
.L6:
.LBE2237:
.LBE2236:
.LBB2238:
.LBB2227:
.LBB2226:
.LBB2223:
.LBB2222:
	.loc 4 290 0
	movq	%rbx, %rdx	# D.94991,
	movq	%r12, %rsi	# __beg,
	call	memcpy	#
.LVL21:
	movq	0(%rbp), %rdx	# MEM[(char * *)this_8(D)], MEM[(char * *)this_8(D)]
	jmp	.L8	#
.LVL22:
	.p2align 4,,10
	.p2align 3
.L25:
	movzbl	(%r12), %eax	# MEM[(const char_type &)__beg_1(D)], D.94993
.LVL23:
.LBE2222:
.LBE2223:
.LBB2224:
.LBB2225:
	.loc 4 243 0
	movb	%al, (%rdx)	# D.94993, MEM[(char_type &)_11]
	movq	0(%rbp), %rdx	# MEM[(char * *)this_8(D)], MEM[(char * *)this_8(D)]
.LVL24:
	jmp	.L8	#
.LVL25:
.L26:
.LBE2225:
.LBE2224:
.LBE2226:
.LBE2227:
.LBE2238:
	.loc 2 237 0
	call	__stack_chk_fail	#
.LVL26:
	.cfi_endproc
.LFE8690:
	.size	_ZNSt7__cxx1112basic_stringIcSt11char_traitsIcESaIcEE12_M_constructIPcEEvT_S7_St20forward_iterator_tag.isra.33, .-_ZNSt7__cxx1112basic_stringIcSt11char_traitsIcESaIcEE12_M_constructIPcEEvT_S7_St20forward_iterator_tag.isra.33
	.section	.text.unlikely
.LCOLDE2:
	.text
.LHOTE2:
	.section	.rodata.str1.1,"aMS",@progbits,1
.LC3:
	.string	" entries: \n"
.LC4:
	.string	"\n\t"
	.section	.text.unlikely
.LCOLDB5:
	.text
.LHOTB5:
	.p2align 4,,15
	.globl	_Z9print_all4info
	.type	_Z9print_all4info, @function
_Z9print_all4info:
.LFB8028:
	.file 5 "main.cpp"
	.loc 5 18 0
	.cfi_startproc
.LVL27:
.LBB2269:
.LBB2270:
	.file 6 "/usr/include/c++/5/ostream"
	.loc 6 171 0
	movq	entry+8(%rip), %rsi	# MEM[(struct info * *)&entry + 8B], MEM[(struct info * *)&entry + 8B]
	subq	entry(%rip), %rsi	# MEM[(struct info * *)&entry], D.95027
	movabsq	$-8198552921648689607, %rax	#, tmp126
.LBE2270:
.LBE2269:
	.loc 5 18 0
	pushq	%r12	#
	.cfi_def_cfa_offset 16
	.cfi_offset 12, -16
	pushq	%rbp	#
	.cfi_def_cfa_offset 24
	.cfi_offset 6, -24
	pushq	%rbx	#
	.cfi_def_cfa_offset 32
	.cfi_offset 3, -32
	.loc 5 18 0
	movq	%rdi, %rbx	# i, i
	.loc 5 20 0
	movl	64(%rdi), %ebp	# *i_1(D).qnty, D.95022
.LVL28:
.LBB2273:
.LBB2271:
	.loc 6 171 0
	movl	$_ZSt4cout, %edi	#,
.LVL29:
	sarq	$3, %rsi	#, tmp124
	imulq	%rax, %rsi	# tmp126, D.95027
	call	_ZNSo9_M_insertImEERSoT_	#
.LVL30:
.LBE2271:
.LBE2273:
.LBB2274:
.LBB2275:
	.loc 6 561 0
	movl	$11, %edx	#,
	movl	$.LC3, %esi	#,
	movq	%rax, %rdi	# D.95023,
.LBE2275:
.LBE2274:
.LBB2277:
.LBB2272:
	.loc 6 171 0
	movq	%rax, %r12	#, D.95023
.LVL31:
.LBE2272:
.LBE2277:
.LBB2278:
.LBB2276:
	.loc 6 561 0
	call	_ZSt16__ostream_insertIcSt11char_traitsIcEERSt13basic_ostreamIT_T0_ES6_PKS3_l	#
.LVL32:
.LBE2276:
.LBE2278:
.LBB2279:
.LBB2280:
	.loc 3 5177 0
	movq	8(%rbx), %rdx	# MEM[(long unsigned int *)i_1(D) + 8B], MEM[(long unsigned int *)i_1(D) + 8B]
	movq	(%rbx), %rsi	# MEM[(char * *)i_1(D)],
	movq	%r12, %rdi	# D.95023,
	call	_ZSt16__ostream_insertIcSt11char_traitsIcEERSt13basic_ostreamIT_T0_ES6_PKS3_l	#
.LVL33:
.LBE2280:
.LBE2279:
.LBB2282:
.LBB2283:
	.loc 6 561 0
	movl	$2, %edx	#,
.LBE2283:
.LBE2282:
.LBB2285:
.LBB2281:
	.loc 3 5177 0
	movq	%rax, %r12	#, D.95025
.LVL34:
.LBE2281:
.LBE2285:
.LBB2286:
.LBB2284:
	.loc 6 561 0
	movl	$.LC4, %esi	#,
	movq	%rax, %rdi	# D.95025,
	call	_ZSt16__ostream_insertIcSt11char_traitsIcEERSt13basic_ostreamIT_T0_ES6_PKS3_l	#
.LVL35:
.LBE2284:
.LBE2286:
	.loc 5 20 0
	movl	%ebp, %esi	# D.95022,
	movq	%r12, %rdi	# D.95025,
	call	_ZNSolsEi	#
.LVL36:
.LBB2287:
.LBB2288:
	.loc 6 561 0
	movl	$2, %edx	#,
	movl	$.LC4, %esi	#,
	movq	%rax, %rdi	# D.95025,
.LBE2288:
.LBE2287:
	.loc 5 20 0
	movq	%rax, %rbp	#, D.95025
.LVL37:
.LBB2290:
.LBB2289:
	.loc 6 561 0
	call	_ZSt16__ostream_insertIcSt11char_traitsIcEERSt13basic_ostreamIT_T0_ES6_PKS3_l	#
.LVL38:
.LBE2289:
.LBE2290:
.LBB2291:
.LBB2292:
	.loc 3 5177 0
	movq	40(%rbx), %rdx	# MEM[(long unsigned int *)i_1(D) + 40B], MEM[(long unsigned int *)i_1(D) + 40B]
	movq	32(%rbx), %rsi	# MEM[(char * *)i_1(D) + 32B], MEM[(char * *)i_1(D) + 32B]
	movq	%rbp, %rdi	# D.95025,
	call	_ZSt16__ostream_insertIcSt11char_traitsIcEERSt13basic_ostreamIT_T0_ES6_PKS3_l	#
.LVL39:
	movq	%rax, %rbp	#, D.95025
.LVL40:
.LBE2292:
.LBE2291:
.LBB2293:
.LBB2294:
.LBB2295:
	.loc 6 591 0
	movq	(%rax), %rax	# _13->_vptr.basic_ostream, _13->_vptr.basic_ostream
.LVL41:
.LBB2296:
.LBB2297:
	.file 7 "/usr/include/c++/5/bits/basic_ios.h"
	.loc 7 450 0
	movq	-24(%rax), %rax	# MEM[(long int *)_29 + -24B], MEM[(long int *)_29 + -24B]
.LVL42:
	movq	240(%rbp,%rax), %rbx	# MEM[(const struct basic_ios *)_32]._M_ctype, D.95029
.LVL43:
.LBB2298:
.LBB2299:
	.loc 7 49 0
	testq	%rbx, %rbx	# D.95029
	je	.L34	#,
.LVL44:
.LBE2299:
.LBE2298:
.LBB2301:
.LBB2302:
	.loc 1 874 0
	cmpb	$0, 56(%rbx)	#, MEM[(const struct ctype *)_28]._M_widen_ok
	je	.L29	#,
	movsbl	67(%rbx), %esi	# MEM[(const struct ctype *)_28]._M_widen, D.95022
.LVL45:
.L30:
.LBE2302:
.LBE2301:
.LBE2297:
.LBE2296:
	.loc 6 591 0
	movq	%rbp, %rdi	# D.95025,
	call	_ZNSo3putEc	#
.LVL46:
.LBE2295:
.LBE2294:
.LBE2293:
	.loc 5 21 0
	popq	%rbx	#
	.cfi_remember_state
	.cfi_def_cfa_offset 24
	popq	%rbp	#
	.cfi_def_cfa_offset 16
.LVL47:
	popq	%r12	#
	.cfi_def_cfa_offset 8
.LBB2314:
.LBB2313:
.LBB2312:
.LBB2309:
.LBB2310:
	.loc 6 613 0
	movq	%rax, %rdi	# D.95025,
	jmp	_ZNSo5flushEv	#
.LVL48:
	.p2align 4,,10
	.p2align 3
.L29:
	.cfi_restore_state
.LBE2310:
.LBE2309:
.LBB2311:
.LBB2308:
.LBB2306:
.LBB2305:
.LBB2303:
.LBB2304:
	.loc 1 876 0
	movq	%rbx, %rdi	# D.95029,
	call	_ZNKSt5ctypeIcE13_M_widen_initEv	#
.LVL49:
	.loc 1 877 0
	movq	(%rbx), %rax	# MEM[(const struct ctype *)_28].D.28244._vptr.facet, MEM[(const struct ctype *)_28].D.28244._vptr.facet
	movl	$10, %esi	#, D.95022
	movq	48(%rax), %rax	# MEM[(int (*__vtbl_ptr_type) () *)_45 + 48B], D.95034
	cmpq	$_ZNKSt5ctypeIcE8do_widenEc, %rax	#, D.95034
	je	.L30	#,
	movq	%rbx, %rdi	# D.95029,
	call	*%rax	# D.95034
.LVL50:
	movsbl	%al, %esi	# D.95033, D.95022
	jmp	.L30	#
.LVL51:
.L34:
.LBE2304:
.LBE2303:
.LBE2305:
.LBE2306:
.LBB2307:
.LBB2300:
	.loc 7 50 0
	call	_ZSt16__throw_bad_castv	#
.LVL52:
.LBE2300:
.LBE2307:
.LBE2308:
.LBE2311:
.LBE2312:
.LBE2313:
.LBE2314:
	.cfi_endproc
.LFE8028:
	.size	_Z9print_all4info, .-_Z9print_all4info
	.section	.text.unlikely
.LCOLDE5:
	.text
.LHOTE5:
	.section	.text.unlikely._ZNSt6vectorI4infoSaIS0_EED2Ev,"axG",@progbits,_ZNSt6vectorI4infoSaIS0_EED5Ev,comdat
	.align 2
.LCOLDB6:
	.section	.text._ZNSt6vectorI4infoSaIS0_EED2Ev,"axG",@progbits,_ZNSt6vectorI4infoSaIS0_EED5Ev,comdat
.LHOTB6:
	.align 2
	.p2align 4,,15
	.weak	_ZNSt6vectorI4infoSaIS0_EED2Ev
	.type	_ZNSt6vectorI4infoSaIS0_EED2Ev, @function
_ZNSt6vectorI4infoSaIS0_EED2Ev:
.LFB8654:
	.file 8 "/usr/include/c++/5/bits/stl_vector.h"
	.loc 8 423 0
	.cfi_startproc
.LVL53:
	pushq	%r12	#
	.cfi_def_cfa_offset 16
	.cfi_offset 12, -16
	pushq	%rbp	#
	.cfi_def_cfa_offset 24
	.cfi_offset 6, -24
	pushq	%rbx	#
	.cfi_def_cfa_offset 32
	.cfi_offset 3, -32
.LBB2367:
	.loc 8 424 0
	movq	8(%rdi), %rbp	# this_1(D)->D.85959._M_impl._M_finish, D.95082
	movq	(%rdi), %rbx	# this_1(D)->D.85959._M_impl._M_start, __first
.LVL54:
.LBB2368:
.LBB2369:
.LBB2370:
.LBB2371:
.LBB2372:
	.file 9 "/usr/include/c++/5/bits/stl_construct.h"
	.loc 9 102 0
	cmpq	%rbx, %rbp	# __first, D.95082
	je	.L36	#,
	movq	%rdi, %r12	# this, this
.LVL55:
	.p2align 4,,10
	.p2align 3
.L39:
	movq	32(%rbx), %rdi	# MEM[base: __first_31, offset: 32B], D.95081
.LVL56:
.LBB2373:
.LBB2374:
.LBB2375:
.LBB2376:
.LBB2377:
	.loc 3 179 0
	leaq	48(%rbx), %rax	#, D.95080
	cmpq	%rax, %rdi	# D.95080, D.95081
	je	.L37	#,
.LVL57:
.LBB2378:
.LBB2379:
.LBB2380:
.LBB2381:
	.file 10 "/usr/include/c++/5/ext/new_allocator.h"
	.loc 10 110 0
	call	_ZdlPv	#
.LVL58:
.L37:
	movq	(%rbx), %rdi	# MEM[base: __first_31, offset: 0B], D.95081
.LVL59:
.LBE2381:
.LBE2380:
.LBE2379:
.LBE2378:
.LBE2377:
.LBE2376:
.LBE2375:
.LBB2382:
.LBB2383:
.LBB2384:
	.loc 3 179 0
	leaq	16(%rbx), %rax	#, D.95080
	cmpq	%rax, %rdi	# D.95080, D.95081
	je	.L38	#,
.LVL60:
.LBB2385:
.LBB2386:
.LBB2387:
.LBB2388:
	.loc 10 110 0
	call	_ZdlPv	#
.LVL61:
.L38:
.LBE2388:
.LBE2387:
.LBE2386:
.LBE2385:
.LBE2384:
.LBE2383:
.LBE2382:
.LBE2374:
.LBE2373:
	.loc 9 102 0
	addq	$72, %rbx	#, __first
.LVL62:
	cmpq	%rbx, %rbp	# __first, D.95082
	jne	.L39	#,
	movq	(%r12), %rbp	# MEM[(struct _Vector_base *)this_1(D)]._M_impl._M_start, D.95082
.LVL63:
.L36:
.LBE2372:
.LBE2371:
.LBE2370:
.LBE2369:
.LBE2368:
.LBB2389:
.LBB2390:
.LBB2391:
	.loc 8 177 0
	testq	%rbp, %rbp	# D.95082
	je	.L35	#,
.LVL64:
.LBE2391:
.LBE2390:
.LBE2389:
.LBE2367:
	.loc 8 425 0
	popq	%rbx	#
	.cfi_remember_state
	.cfi_def_cfa_offset 24
.LBB2404:
.LBB2402:
.LBB2400:
.LBB2398:
.LBB2392:
.LBB2393:
.LBB2394:
	.loc 10 110 0
	movq	%rbp, %rdi	# D.95082,
.LBE2394:
.LBE2393:
.LBE2392:
.LBE2398:
.LBE2400:
.LBE2402:
.LBE2404:
	.loc 8 425 0
	popq	%rbp	#
	.cfi_def_cfa_offset 16
	popq	%r12	#
	.cfi_def_cfa_offset 8
.LBB2405:
.LBB2403:
.LBB2401:
.LBB2399:
.LBB2397:
.LBB2396:
.LBB2395:
	.loc 10 110 0
	jmp	_ZdlPv	#
.LVL65:
	.p2align 4,,10
	.p2align 3
.L35:
	.cfi_restore_state
.LBE2395:
.LBE2396:
.LBE2397:
.LBE2399:
.LBE2401:
.LBE2403:
.LBE2405:
	.loc 8 425 0
	popq	%rbx	#
	.cfi_def_cfa_offset 24
	popq	%rbp	#
	.cfi_def_cfa_offset 16
	popq	%r12	#
	.cfi_def_cfa_offset 8
	ret
	.cfi_endproc
.LFE8654:
	.size	_ZNSt6vectorI4infoSaIS0_EED2Ev, .-_ZNSt6vectorI4infoSaIS0_EED2Ev
	.section	.text.unlikely._ZNSt6vectorI4infoSaIS0_EED2Ev,"axG",@progbits,_ZNSt6vectorI4infoSaIS0_EED5Ev,comdat
.LCOLDE6:
	.section	.text._ZNSt6vectorI4infoSaIS0_EED2Ev,"axG",@progbits,_ZNSt6vectorI4infoSaIS0_EED5Ev,comdat
.LHOTE6:
	.weak	_ZNSt6vectorI4infoSaIS0_EED1Ev
	.set	_ZNSt6vectorI4infoSaIS0_EED1Ev,_ZNSt6vectorI4infoSaIS0_EED2Ev
	.section	.text.unlikely
.LCOLDB7:
	.text
.LHOTB7:
	.p2align 4,,15
	.globl	_Z10print_findN9__gnu_cxx17__normal_iteratorIP4infoSt6vectorIS1_SaIS1_EEEE
	.type	_Z10print_findN9__gnu_cxx17__normal_iteratorIP4infoSt6vectorIS1_SaIS1_EEEE, @function
_Z10print_findN9__gnu_cxx17__normal_iteratorIP4infoSt6vectorIS1_SaIS1_EEEE:
.LFB8027:
	.loc 5 17 0
	.cfi_startproc
.LVL66:
	pushq	%r12	#
	.cfi_def_cfa_offset 16
	.cfi_offset 12, -16
	pushq	%rbp	#
	.cfi_def_cfa_offset 24
	.cfi_offset 6, -24
	pushq	%rbx	#
	.cfi_def_cfa_offset 32
	.cfi_offset 3, -32
.LBB2406:
.LBB2407:
	.loc 3 5177 0
	movq	8(%rdi), %rdx	# MEM[(long unsigned int *)place$_M_current_6 + 8B], MEM[(long unsigned int *)place$_M_current_6 + 8B]
.LBE2407:
.LBE2406:
	.loc 5 17 0
	movq	%rdi, %rbx	# place, place
.LBB2411:
.LBB2408:
	.loc 3 5177 0
	movq	(%rdi), %rsi	# MEM[(char * *)place$_M_current_6],
.LBE2408:
.LBE2411:
	.loc 5 17 0
	movl	64(%rdi), %r12d	# place$_M_current_6->qnty, D.95087
.LVL67:
.LBB2412:
.LBB2409:
	.loc 3 5177 0
	movl	$_ZSt4cout, %edi	#,
.LVL68:
	call	_ZSt16__ostream_insertIcSt11char_traitsIcEERSt13basic_ostreamIT_T0_ES6_PKS3_l	#
.LVL69:
.LBE2409:
.LBE2412:
.LBB2413:
.LBB2414:
	.loc 6 561 0
	movl	$2, %edx	#,
.LBE2414:
.LBE2413:
.LBB2416:
.LBB2410:
	.loc 3 5177 0
	movq	%rax, %rbp	#, D.95089
.LVL70:
.LBE2410:
.LBE2416:
.LBB2417:
.LBB2415:
	.loc 6 561 0
	movl	$.LC4, %esi	#,
	movq	%rax, %rdi	# D.95089,
	call	_ZSt16__ostream_insertIcSt11char_traitsIcEERSt13basic_ostreamIT_T0_ES6_PKS3_l	#
.LVL71:
.LBE2415:
.LBE2417:
	.loc 5 17 0
	movl	%r12d, %esi	# D.95087,
	movq	%rbp, %rdi	# D.95089,
	call	_ZNSolsEi	#
.LVL72:
.LBB2418:
.LBB2419:
	.loc 6 561 0
	movl	$2, %edx	#,
.LBE2419:
.LBE2418:
	.loc 5 17 0
	movq	%rax, %rbp	#, D.95089
.LVL73:
.LBB2421:
.LBB2420:
	.loc 6 561 0
	movl	$.LC4, %esi	#,
	movq	%rax, %rdi	# D.95089,
	call	_ZSt16__ostream_insertIcSt11char_traitsIcEERSt13basic_ostreamIT_T0_ES6_PKS3_l	#
.LVL74:
.LBE2420:
.LBE2421:
.LBB2422:
.LBB2423:
	.loc 3 5177 0
	movq	40(%rbx), %rdx	# MEM[(long unsigned int *)place$_M_current_6 + 40B], MEM[(long unsigned int *)place$_M_current_6 + 40B]
	movq	32(%rbx), %rsi	# MEM[(char * *)place$_M_current_6 + 32B], MEM[(char * *)place$_M_current_6 + 32B]
	movq	%rbp, %rdi	# D.95089,
.LBE2423:
.LBE2422:
	.loc 5 17 0
	popq	%rbx	#
	.cfi_def_cfa_offset 24
.LVL75:
	popq	%rbp	#
	.cfi_def_cfa_offset 16
.LVL76:
	popq	%r12	#
	.cfi_def_cfa_offset 8
.LBB2425:
.LBB2424:
	.loc 3 5177 0
	jmp	_ZSt16__ostream_insertIcSt11char_traitsIcEERSt13basic_ostreamIT_T0_ES6_PKS3_l	#
.LVL77:
.LBE2424:
.LBE2425:
	.cfi_endproc
.LFE8027:
	.size	_Z10print_findN9__gnu_cxx17__normal_iteratorIP4infoSt6vectorIS1_SaIS1_EEEE, .-_Z10print_findN9__gnu_cxx17__normal_iteratorIP4infoSt6vectorIS1_SaIS1_EEEE
	.section	.text.unlikely
.LCOLDE7:
	.text
.LHOTE7:
	.section	.text.unlikely._ZN4infoD2Ev,"axG",@progbits,_ZN4infoD5Ev,comdat
	.align 2
.LCOLDB8:
	.section	.text._ZN4infoD2Ev,"axG",@progbits,_ZN4infoD5Ev,comdat
.LHOTB8:
	.align 2
	.p2align 4,,15
	.weak	_ZN4infoD2Ev
	.type	_ZN4infoD2Ev, @function
_ZN4infoD2Ev:
.LFB8041:
	.loc 5 9 0
	.cfi_startproc
.LVL78:
	pushq	%rbx	#
	.cfi_def_cfa_offset 16
	.cfi_offset 3, -16
	.loc 5 9 0
	movq	%rdi, %rbx	# this, this
	movq	32(%rdi), %rdi	# MEM[(char * *)this_1(D) + 32B], D.95126
.LVL79:
.LBB2457:
.LBB2458:
.LBB2459:
.LBB2460:
.LBB2461:
.LBB2462:
	.loc 3 151 0
	leaq	48(%rbx), %rax	#, D.95127
.LBE2462:
.LBE2461:
.LBE2460:
	.loc 3 179 0
	cmpq	%rax, %rdi	# D.95127, D.95126
	je	.L46	#,
.LVL80:
.LBB2463:
.LBB2464:
.LBB2465:
.LBB2466:
	.loc 10 110 0
	call	_ZdlPv	#
.LVL81:
.L46:
	movq	(%rbx), %rdi	# MEM[(char * *)this_1(D)], D.95126
.LVL82:
.LBE2466:
.LBE2465:
.LBE2464:
.LBE2463:
.LBE2459:
.LBE2458:
.LBE2457:
.LBB2467:
.LBB2468:
.LBB2469:
.LBB2470:
.LBB2471:
.LBB2472:
	.loc 3 151 0
	addq	$16, %rbx	#, D.95127
.LVL83:
.LBE2472:
.LBE2471:
.LBE2470:
	.loc 3 179 0
	cmpq	%rbx, %rdi	# D.95127, D.95126
	je	.L45	#,
.LVL84:
.LBE2469:
.LBE2468:
.LBE2467:
	.loc 5 9 0
	popq	%rbx	#
	.cfi_remember_state
	.cfi_def_cfa_offset 8
.LVL85:
.LBB2479:
.LBB2478:
.LBB2477:
.LBB2473:
.LBB2474:
.LBB2475:
.LBB2476:
	.loc 10 110 0
	jmp	_ZdlPv	#
.LVL86:
	.p2align 4,,10
	.p2align 3
.L45:
	.cfi_restore_state
.LBE2476:
.LBE2475:
.LBE2474:
.LBE2473:
.LBE2477:
.LBE2478:
.LBE2479:
	.loc 5 9 0
	popq	%rbx	#
	.cfi_def_cfa_offset 8
	ret
	.cfi_endproc
.LFE8041:
	.size	_ZN4infoD2Ev, .-_ZN4infoD2Ev
	.section	.text.unlikely._ZN4infoD2Ev,"axG",@progbits,_ZN4infoD5Ev,comdat
.LCOLDE8:
	.section	.text._ZN4infoD2Ev,"axG",@progbits,_ZN4infoD5Ev,comdat
.LHOTE8:
	.weak	_ZN4infoD1Ev
	.set	_ZN4infoD1Ev,_ZN4infoD2Ev
	.section	.rodata.str1.1
.LC9:
	.string	" "
	.section	.text.unlikely
.LCOLDB10:
	.text
.LHOTB10:
	.p2align 4,,15
	.globl	_Z5writeNSt7__cxx1112basic_stringIcSt11char_traitsIcESaIcEEE
	.type	_Z5writeNSt7__cxx1112basic_stringIcSt11char_traitsIcESaIcEEE, @function
_Z5writeNSt7__cxx1112basic_stringIcSt11char_traitsIcESaIcEEE:
.LFB8044:
	.loc 5 61 0
	.cfi_startproc
	.cfi_personality 0x3,__gxx_personality_v0
	.cfi_lsda 0x3,.LLSDA8044
.LVL87:
	pushq	%r15	#
	.cfi_def_cfa_offset 16
	.cfi_offset 15, -16
	pushq	%r14	#
	.cfi_def_cfa_offset 24
	.cfi_offset 14, -24
	pushq	%r13	#
	.cfi_def_cfa_offset 32
	.cfi_offset 13, -32
	pushq	%r12	#
	.cfi_def_cfa_offset 40
	.cfi_offset 12, -40
	pushq	%rbp	#
	.cfi_def_cfa_offset 48
	.cfi_offset 6, -48
	pushq	%rbx	#
	.cfi_def_cfa_offset 56
	.cfi_offset 3, -56
	movq	%rdi, %rbx	# fname, fname
	subq	$536, %rsp	#,
	.cfi_def_cfa_offset 592
.LBB2554:
.LBB2555:
.LBB2556:
.LBB2557:
	.loc 7 462 0
	leaq	248(%rsp), %rdi	#, tmp159
.LVL88:
.LBE2557:
.LBE2556:
.LBE2555:
.LBE2554:
	.loc 5 61 0
	movq	%fs:40, %rax	#, tmp239
	movq	%rax, 520(%rsp)	# tmp239, D.95226
	xorl	%eax, %eax	# tmp239
.LVL89:
.LBB2580:
.LBB2578:
.LBB2562:
.LBB2558:
	.loc 7 462 0
	call	_ZNSt8ios_baseC2Ev	#
.LVL90:
.LBE2558:
.LBE2562:
.LBB2563:
.LBB2564:
	.loc 6 385 0
	movq	_ZTTSt14basic_ofstreamIcSt11char_traitsIcEE+8(%rip), %r15	# MEM[(const void * *)&_ZTTSt14basic_ofstreamIcSt11char_traitsIcEE + 8B], D.95210
.LBE2564:
.LBE2563:
.LBB2568:
.LBB2559:
	.loc 7 462 0
	movb	$0, 472(%rsp)	#, MEM[(struct basic_ios *)&out + 248B]._M_fill
.LBE2559:
.LBE2568:
.LBB2569:
.LBB2565:
	.loc 6 385 0
	xorl	%esi, %esi	#
.LBE2565:
.LBE2569:
.LBB2570:
.LBB2560:
	.loc 7 462 0
	movq	$_ZTVSt9basic_iosIcSt11char_traitsIcEE+16, 248(%rsp)	#, MEM[(struct basic_ios *)&out + 248B].D.31416._vptr.ios_base
	movq	$0, 464(%rsp)	#, MEM[(struct basic_ios *)&out + 248B]._M_tie
	movb	$0, 473(%rsp)	#, MEM[(struct basic_ios *)&out + 248B]._M_fill_init
	movq	$0, 480(%rsp)	#, MEM[(struct basic_ios *)&out + 248B]._M_streambuf
.LBE2560:
.LBE2570:
.LBB2571:
.LBB2566:
	.loc 6 385 0
	movq	-24(%r15), %rax	# MEM[(long int *)_49 + -24B], tmp241
.LBE2566:
.LBE2571:
.LBB2572:
.LBB2561:
	.loc 7 462 0
	movq	$0, 488(%rsp)	#, MEM[(struct basic_ios *)&out + 248B]._M_ctype
	movq	$0, 496(%rsp)	#, MEM[(struct basic_ios *)&out + 248B]._M_num_put
	movq	$0, 504(%rsp)	#, MEM[(struct basic_ios *)&out + 248B]._M_num_get
.LVL91:
.LBE2561:
.LBE2572:
.LBB2573:
.LBB2567:
	.loc 6 385 0
	movq	%r15, (%rsp)	# D.95210, MEM[(struct basic_ostream *)&out]._vptr.basic_ostream
	leaq	(%rsp,%rax), %rdi	#, D.95221
	movq	_ZTTSt14basic_ofstreamIcSt11char_traitsIcEE+16(%rip), %rax	# MEM[(const void * *)&_ZTTSt14basic_ofstreamIcSt11char_traitsIcEE + 16B], tmp242
	movq	%rax, (%rdi)	# tmp242, _52->D.31416._vptr.ios_base
.LEHB0:
	call	_ZNSt9basic_iosIcSt11char_traitsIcEE4initEPSt15basic_streambufIcS1_E	#
.LVL92:
.LEHE0:
.LBE2567:
.LBE2573:
	.file 11 "/usr/include/c++/5/fstream"
	.loc 11 682 0
	leaq	8(%rsp), %rdi	#, tmp165
	movq	$_ZTVSt14basic_ofstreamIcSt11char_traitsIcEE+24, (%rsp)	#, out.D.38192._vptr.basic_ostream
	movq	$_ZTVSt14basic_ofstreamIcSt11char_traitsIcEE+64, 248(%rsp)	#, MEM[(struct basic_ios *)&out + 248B].D.31416._vptr.ios_base
.LEHB1:
	call	_ZNSt13basic_filebufIcSt11char_traitsIcEEC1Ev	#
.LVL93:
.LEHE1:
	.loc 11 683 0
	leaq	8(%rsp), %rsi	#, tmp167
	leaq	248(%rsp), %rdi	#, tmp169
.LEHB2:
	call	_ZNSt9basic_iosIcSt11char_traitsIcEE4initEPSt15basic_streambufIcS1_E	#
.LVL94:
.LEHE2:
.LBE2578:
.LBE2580:
.LBB2581:
.LBB2582:
.LBB2583:
.LBB2584:
	.loc 11 308 0
	movq	(%rbx), %rsi	# MEM[(char * *)fname_7(D)],
	leaq	8(%rsp), %rdi	#, tmp182
.LVL95:
	movl	$48, %edx	#,
.LEHB3:
	call	_ZNSt13basic_filebufIcSt11char_traitsIcEE4openEPKcSt13_Ios_Openmode	#
.LVL96:
.LBE2584:
.LBE2583:
	.loc 11 823 0
	testq	%rax, %rax	# D.95219
.LBB2585:
.LBB2586:
	.loc 11 842 0
	movq	(%rsp), %rax	# out.D.38192._vptr.basic_ostream, out.D.38192._vptr.basic_ostream
	movq	-24(%rax), %rax	#, tmp244
	leaq	(%rsp,%rax), %rdi	#, D.95221
.LBE2586:
.LBE2585:
	.loc 11 823 0
	je	.L80	#,
	.loc 11 828 0
	xorl	%esi, %esi	#
	call	_ZNSt9basic_iosIcSt11char_traitsIcEE5clearESt12_Ios_Iostate	#
.LVL97:
.L57:
	movq	entry(%rip), %rdx	# MEM[(struct info * *)&entry], D.95215
.LVL98:
.LBE2582:
.LBE2581:
.LBB2592:
	.loc 5 64 0
	movq	entry+8(%rip), %rax	# MEM[(struct info * *)&entry + 8B], D.95211
	movabsq	$-8198552921648689607, %r14	#, tmp195
	subq	%rdx, %rax	# D.95215, D.95211
	sarq	$3, %rax	#, tmp193
	imulq	%r14, %rax	# tmp195, D.95211
	testq	%rax, %rax	# D.95211
	je	.L62	#,
	xorl	%ebp, %ebp	# D.95214
	jmp	.L61	#
.LVL99:
	.p2align 4,,10
	.p2align 3
.L82:
	movsbl	67(%rbx), %esi	# MEM[(const struct ctype *)_39]._M_widen, D.95212
.LVL100:
.L60:
.LBB2593:
.LBB2594:
.LBB2595:
	.loc 6 591 0
	movq	%r12, %rdi	# D.95213,
	call	_ZNSo3putEc	#
.LVL101:
.LBB2596:
.LBB2597:
	.loc 6 613 0
	movq	%rax, %rdi	# D.95213,
	call	_ZNSo5flushEv	#
.LVL102:
	movq	entry(%rip), %rdx	# MEM[(struct info * *)&entry], D.95215
.LBE2597:
.LBE2596:
.LBE2595:
.LBE2594:
.LBE2593:
	.loc 5 64 0
	movq	entry+8(%rip), %rax	# MEM[(struct info * *)&entry + 8B], D.95211
	addq	$1, %rbp	#, D.95214
.LVL103:
	subq	%rdx, %rax	# D.95215, D.95211
	sarq	$3, %rax	#, tmp218
	imulq	%r14, %rax	# tmp238, D.95211
	cmpq	%rbp, %rax	# D.95214, D.95211
	jbe	.L62	#,
.LVL104:
.L61:
.LBB2614:
.LBB2615:
	.loc 8 780 0
	leaq	0(%rbp,%rbp,8), %rax	#, D.95214
.LBE2615:
.LBE2614:
.LBB2617:
.LBB2618:
	.loc 3 5177 0
	movq	%rsp, %rdi	#,
.LBE2618:
.LBE2617:
.LBB2622:
.LBB2616:
	.loc 8 780 0
	leaq	(%rdx,%rax,8), %rbx	#, D.95217
.LVL105:
.LBE2616:
.LBE2622:
.LBB2623:
.LBB2619:
	.loc 3 5177 0
	movq	8(%rbx), %rdx	# MEM[(long unsigned int *)_31 + 8B], MEM[(long unsigned int *)_31 + 8B]
	movq	(%rbx), %rsi	# MEM[(char * *)_31],
.LBE2619:
.LBE2623:
	.loc 5 66 0
	movl	64(%rbx), %r13d	# _31->qnty, D.95212
.LVL106:
.LBB2624:
.LBB2620:
	.loc 3 5177 0
	call	_ZSt16__ostream_insertIcSt11char_traitsIcEERSt13basic_ostreamIT_T0_ES6_PKS3_l	#
.LVL107:
.LBE2620:
.LBE2624:
.LBB2625:
.LBB2626:
	.loc 6 561 0
	movl	$1, %edx	#,
	movl	$.LC9, %esi	#,
	movq	%rax, %rdi	# D.95213,
.LBE2626:
.LBE2625:
.LBB2628:
.LBB2621:
	.loc 3 5177 0
	movq	%rax, %r12	#, D.95213
.LVL108:
.LBE2621:
.LBE2628:
.LBB2629:
.LBB2627:
	.loc 6 561 0
	call	_ZSt16__ostream_insertIcSt11char_traitsIcEERSt13basic_ostreamIT_T0_ES6_PKS3_l	#
.LVL109:
.LBE2627:
.LBE2629:
	.loc 5 66 0
	movl	%r13d, %esi	# D.95212,
	movq	%r12, %rdi	# D.95213,
	call	_ZNSolsEi	#
.LVL110:
.LBB2630:
.LBB2631:
	.loc 6 561 0
	movl	$1, %edx	#,
	movl	$.LC9, %esi	#,
	movq	%rax, %rdi	# D.95213,
.LBE2631:
.LBE2630:
	.loc 5 66 0
	movq	%rax, %r12	#, D.95213
.LVL111:
.LBB2633:
.LBB2632:
	.loc 6 561 0
	call	_ZSt16__ostream_insertIcSt11char_traitsIcEERSt13basic_ostreamIT_T0_ES6_PKS3_l	#
.LVL112:
.LBE2632:
.LBE2633:
.LBB2634:
.LBB2635:
	.loc 3 5177 0
	movq	40(%rbx), %rdx	# MEM[(long unsigned int *)_31 + 40B], MEM[(long unsigned int *)_31 + 40B]
	movq	32(%rbx), %rsi	# MEM[(char * *)_31 + 32B], MEM[(char * *)_31 + 32B]
	movq	%r12, %rdi	# D.95213,
	call	_ZSt16__ostream_insertIcSt11char_traitsIcEERSt13basic_ostreamIT_T0_ES6_PKS3_l	#
.LVL113:
	movq	%rax, %r12	#, D.95213
.LVL114:
.LBE2635:
.LBE2634:
.LBB2636:
.LBB2612:
.LBB2610:
	.loc 6 591 0
	movq	(%rax), %rax	# _34->_vptr.basic_ostream, _34->_vptr.basic_ostream
.LVL115:
.LBB2598:
.LBB2599:
	.loc 7 450 0
	movq	-24(%rax), %rax	# MEM[(long int *)_65 + -24B], MEM[(long int *)_65 + -24B]
.LVL116:
	movq	240(%r12,%rax), %rbx	# MEM[(const struct basic_ios *)_68]._M_ctype, D.95218
.LVL117:
.LBB2600:
.LBB2601:
	.loc 7 49 0
	testq	%rbx, %rbx	# D.95218
	je	.L81	#,
.LVL118:
.LBE2601:
.LBE2600:
.LBB2603:
.LBB2604:
	.loc 1 874 0
	cmpb	$0, 56(%rbx)	#, MEM[(const struct ctype *)_39]._M_widen_ok
	jne	.L82	#,
.LVL119:
.LBB2605:
.LBB2606:
	.loc 1 876 0
	movq	%rbx, %rdi	# D.95218,
	call	_ZNKSt5ctypeIcE13_M_widen_initEv	#
.LVL120:
	.loc 1 877 0
	movq	(%rbx), %rax	# MEM[(const struct ctype *)_39].D.28244._vptr.facet, MEM[(const struct ctype *)_39].D.28244._vptr.facet
	movl	$10, %esi	#, D.95212
	movq	48(%rax), %rax	# MEM[(int (*__vtbl_ptr_type) () *)_81 + 48B], D.95224
	cmpq	$_ZNKSt5ctypeIcE8do_widenEc, %rax	#, D.95224
	je	.L60	#,
	movq	%rbx, %rdi	# D.95218,
	call	*%rax	# D.95224
.LVL121:
	movsbl	%al, %esi	# D.95223, D.95212
	jmp	.L60	#
.LVL122:
	.p2align 4,,10
	.p2align 3
.L62:
.LBE2606:
.LBE2605:
.LBE2604:
.LBE2603:
.LBE2599:
.LBE2598:
.LBE2610:
.LBE2612:
.LBE2636:
.LBE2592:
.LBB2638:
.LBB2639:
	.loc 11 841 0
	leaq	8(%rsp), %rdi	#, tmp197
	call	_ZNSt13basic_filebufIcSt11char_traitsIcEE5closeEv	#
.LVL123:
.LEHE3:
	testq	%rax, %rax	# D.95219
	je	.L83	#,
.L64:
.LVL124:
.LBE2639:
.LBE2638:
.LBB2645:
.LBB2646:
.LBB2647:
.LBB2648:
	.loc 11 239 0
	leaq	8(%rsp), %rdi	#, tmp222
.LBE2648:
.LBE2647:
	.loc 11 738 0
	movq	$_ZTVSt14basic_ofstreamIcSt11char_traitsIcEE+24, (%rsp)	#, out.D.38192._vptr.basic_ostream
	movq	$_ZTVSt14basic_ofstreamIcSt11char_traitsIcEE+64, 248(%rsp)	#, MEM[(struct basic_ios *)&out + 248B].D.31416._vptr.ios_base
.LVL125:
.LBB2652:
.LBB2651:
	.loc 11 239 0
	movq	$_ZTVSt13basic_filebufIcSt11char_traitsIcEE+16, 8(%rsp)	#, MEM[(struct basic_filebuf *)&out + 8B].D.37902._vptr.basic_streambuf
	call	_ZNSt13basic_filebufIcSt11char_traitsIcEE5closeEv	#
.LVL126:
	leaq	112(%rsp), %rdi	#, tmp224
	call	_ZNSt12__basic_fileIcED1Ev	#
.LVL127:
.LBB2649:
.LBB2650:
	.file 12 "/usr/include/c++/5/streambuf"
	.loc 12 198 0
	leaq	64(%rsp), %rdi	#, tmp226
	movq	$_ZTVSt15basic_streambufIcSt11char_traitsIcEE+16, 8(%rsp)	#, MEM[(struct basic_streambuf *)&out + 8B]._vptr.basic_streambuf
	call	_ZNSt6localeD1Ev	#
.LVL128:
.LBE2650:
.LBE2649:
.LBE2651:
.LBE2652:
.LBB2653:
.LBB2654:
	.loc 6 93 0
	movq	-24(%r15), %rax	# MEM[(long int *)_49 + -24B], MEM[(long int *)_49 + -24B]
	movq	_ZTTSt14basic_ofstreamIcSt11char_traitsIcEE+16(%rip), %rcx	# MEM[(const void * *)&_ZTTSt14basic_ofstreamIcSt11char_traitsIcEE + 16B], tmp249
.LBE2654:
.LBE2653:
.LBB2656:
.LBB2657:
	.loc 7 282 0
	leaq	248(%rsp), %rdi	#, tmp229
.LBE2657:
.LBE2656:
.LBB2659:
.LBB2655:
	.loc 6 93 0
	movq	%rcx, (%rsp,%rax)	# tmp249, _103->D.31416._vptr.ios_base
.LVL129:
.LBE2655:
.LBE2659:
.LBB2660:
.LBB2658:
	.loc 7 282 0
	movq	$_ZTVSt9basic_iosIcSt11char_traitsIcEE+16, 248(%rsp)	#, MEM[(struct basic_ios *)&out + 248B].D.31416._vptr.ios_base
	call	_ZNSt8ios_baseD2Ev	#
.LVL130:
.LBE2658:
.LBE2660:
.LBE2646:
.LBE2645:
	.loc 5 69 0
	movq	520(%rsp), %rax	# D.95226, tmp240
	xorq	%fs:40, %rax	#, tmp240
	jne	.L84	#,
	addq	$536, %rsp	#,
	.cfi_remember_state
	.cfi_def_cfa_offset 56
.LVL131:
	popq	%rbx	#
	.cfi_def_cfa_offset 48
	popq	%rbp	#
	.cfi_def_cfa_offset 40
	popq	%r12	#
	.cfi_def_cfa_offset 32
	popq	%r13	#
	.cfi_def_cfa_offset 24
	popq	%r14	#
	.cfi_def_cfa_offset 16
	popq	%r15	#
	.cfi_def_cfa_offset 8
	ret
.LVL132:
.L80:
	.cfi_restore_state
.LBB2661:
.LBB2591:
.LBB2590:
.LBB2589:
.LBB2587:
.LBB2588:
	.loc 7 158 0
	movl	32(%rdi), %esi	# MEM[(_Ios_Iostate *)_62 + 32B], D.95222
	orl	$4, %esi	#, D.95222
.LEHB4:
	call	_ZNSt9basic_iosIcSt11char_traitsIcEE5clearESt12_Ios_Iostate	#
.LVL133:
	jmp	.L57	#
.LVL134:
.L83:
.LBE2588:
.LBE2587:
.LBE2589:
.LBE2590:
.LBE2591:
.LBE2661:
.LBB2662:
.LBB2644:
.LBB2640:
.LBB2641:
	.loc 11 842 0
	movq	(%rsp), %rax	# out.D.38192._vptr.basic_ostream, out.D.38192._vptr.basic_ostream
	movq	-24(%rax), %rax	# MEM[(long int *)_17 + -24B], tmp250
	leaq	(%rsp,%rax), %rdi	#, D.95221
.LVL135:
.LBB2642:
.LBB2643:
	.loc 7 158 0
	movl	32(%rdi), %esi	# MEM[(_Ios_Iostate *)_95 + 32B], D.95222
	orl	$4, %esi	#, D.95222
	call	_ZNSt9basic_iosIcSt11char_traitsIcEE5clearESt12_Ios_Iostate	#
.LVL136:
	jmp	.L64	#
.LVL137:
.L81:
.LBE2643:
.LBE2642:
.LBE2641:
.LBE2640:
.LBE2644:
.LBE2662:
.LBB2663:
.LBB2637:
.LBB2613:
.LBB2611:
.LBB2609:
.LBB2608:
.LBB2607:
.LBB2602:
	.loc 7 50 0
	call	_ZSt16__throw_bad_castv	#
.LVL138:
.LEHE4:
.L68:
	movq	%rax, %rbx	#, tmp236
.LBE2602:
.LBE2607:
.LBE2608:
.LBE2609:
.LBE2611:
.LBE2613:
.LBE2637:
.LBE2663:
	.loc 5 62 0
	movq	%rsp, %rdi	#,
	call	_ZNSt14basic_ofstreamIcSt11char_traitsIcEED1Ev	#
.LVL139:
	movq	%rbx, %rdi	# tmp236,
.LEHB5:
	call	_Unwind_Resume	#
.LVL140:
.L71:
.LBB2664:
.LBB2579:
	.loc 11 682 0
	leaq	8(%rsp), %rdi	#, tmp171
	movq	%rax, %rbx	#, tmp173
.LVL141:
	call	_ZNSt13basic_filebufIcSt11char_traitsIcEED1Ev	#
.LVL142:
	movq	%rbx, %rax	# tmp173, tmp172
.L52:
.LVL143:
.LBB2574:
.LBB2575:
	.loc 6 93 0
	movq	-24(%r15), %rdx	# MEM[(long int *)_49 + -24B], MEM[(long int *)_49 + -24B]
	movq	_ZTTSt14basic_ofstreamIcSt11char_traitsIcEE+16(%rip), %rcx	# MEM[(const void * *)&_ZTTSt14basic_ofstreamIcSt11char_traitsIcEE + 16B], tmp243
	movq	%rax, %rbx	# tmp172, tmp177
	movq	%rcx, (%rsp,%rdx)	# tmp243, _59->D.31416._vptr.ios_base
.LVL144:
.L53:
.LBE2575:
.LBE2574:
.LBB2576:
.LBB2577:
	.loc 7 282 0
	leaq	248(%rsp), %rdi	#, tmp180
.LVL145:
	movq	$_ZTVSt9basic_iosIcSt11char_traitsIcEE+16, 248(%rsp)	#, MEM[(struct basic_ios *)&out + 248B].D.31416._vptr.ios_base
	call	_ZNSt8ios_baseD2Ev	#
.LVL146:
	movq	%rbx, %rdi	# tmp177,
	call	_Unwind_Resume	#
.LVL147:
.LEHE5:
.L70:
	jmp	.L52	#
.LVL148:
.L69:
	movq	%rax, %rbx	#, tmp177
.LVL149:
	jmp	.L53	#
.LVL150:
.L84:
.LBE2577:
.LBE2576:
.LBE2579:
.LBE2664:
	.loc 5 69 0
	call	__stack_chk_fail	#
.LVL151:
	.cfi_endproc
.LFE8044:
	.globl	__gxx_personality_v0
	.section	.gcc_except_table,"a",@progbits
.LLSDA8044:
	.byte	0xff
	.byte	0xff
	.byte	0x1
	.uleb128 .LLSDACSE8044-.LLSDACSB8044
.LLSDACSB8044:
	.uleb128 .LEHB0-.LFB8044
	.uleb128 .LEHE0-.LEHB0
	.uleb128 .L69-.LFB8044
	.uleb128 0
	.uleb128 .LEHB1-.LFB8044
	.uleb128 .LEHE1-.LEHB1
	.uleb128 .L70-.LFB8044
	.uleb128 0
	.uleb128 .LEHB2-.LFB8044
	.uleb128 .LEHE2-.LEHB2
	.uleb128 .L71-.LFB8044
	.uleb128 0
	.uleb128 .LEHB3-.LFB8044
	.uleb128 .LEHE3-.LEHB3
	.uleb128 .L68-.LFB8044
	.uleb128 0
	.uleb128 .LEHB4-.LFB8044
	.uleb128 .LEHE4-.LEHB4
	.uleb128 .L68-.LFB8044
	.uleb128 0
	.uleb128 .LEHB5-.LFB8044
	.uleb128 .LEHE5-.LEHB5
	.uleb128 0
	.uleb128 0
.LLSDACSE8044:
	.text
	.size	_Z5writeNSt7__cxx1112basic_stringIcSt11char_traitsIcESaIcEEE, .-_Z5writeNSt7__cxx1112basic_stringIcSt11char_traitsIcESaIcEEE
	.section	.text.unlikely
.LCOLDE10:
	.text
.LHOTE10:
	.section	.text.unlikely._ZNSt6vectorI4infoSaIS0_EE19_M_emplace_back_auxIJRKS0_EEEvDpOT_,"axG",@progbits,_ZNSt6vectorI4infoSaIS0_EE19_M_emplace_back_auxIJRKS0_EEEvDpOT_,comdat
	.align 2
.LCOLDB11:
	.section	.text._ZNSt6vectorI4infoSaIS0_EE19_M_emplace_back_auxIJRKS0_EEEvDpOT_,"axG",@progbits,_ZNSt6vectorI4infoSaIS0_EE19_M_emplace_back_auxIJRKS0_EEEvDpOT_,comdat
.LHOTB11:
	.align 2
	.p2align 4,,15
	.weak	_ZNSt6vectorI4infoSaIS0_EE19_M_emplace_back_auxIJRKS0_EEEvDpOT_
	.type	_ZNSt6vectorI4infoSaIS0_EE19_M_emplace_back_auxIJRKS0_EEEvDpOT_, @function
_ZNSt6vectorI4infoSaIS0_EE19_M_emplace_back_auxIJRKS0_EEEvDpOT_:
.LFB8391:
	.file 13 "/usr/include/c++/5/bits/vector.tcc"
	.loc 13 407 0
	.cfi_startproc
	.cfi_personality 0x3,__gxx_personality_v0
	.cfi_lsda 0x3,.LLSDA8391
.LVL152:
	pushq	%r15	#
	.cfi_def_cfa_offset 16
	.cfi_offset 15, -16
	pushq	%r14	#
	.cfi_def_cfa_offset 24
	.cfi_offset 14, -24
.LBB2853:
.LBB2854:
.LBB2855:
.LBB2856:
	.loc 8 655 0
	movabsq	$-8198552921648689607, %rax	#, tmp202
.LBE2856:
.LBE2855:
.LBE2854:
.LBE2853:
	.loc 13 407 0
	pushq	%r13	#
	.cfi_def_cfa_offset 32
	.cfi_offset 13, -32
	pushq	%r12	#
	.cfi_def_cfa_offset 40
	.cfi_offset 12, -40
	movq	%rsi, %r15	# __args#0, __args#0
	pushq	%rbp	#
	.cfi_def_cfa_offset 48
	.cfi_offset 6, -48
	pushq	%rbx	#
	.cfi_def_cfa_offset 56
	.cfi_offset 3, -56
	movq	%rdi, %rbp	# this, this
	subq	$8, %rsp	#,
	.cfi_def_cfa_offset 64
	movq	(%rdi), %r14	# MEM[(struct info * *)this_3(D)], D.95427
	movq	8(%rdi), %rdi	# MEM[(struct info * *)this_3(D) + 8B], D.95427
.LVL153:
.LBB2866:
.LBB2863:
.LBB2858:
.LBB2857:
	.loc 8 655 0
	movq	%rdi, %rbx	# D.95427, D.95430
	subq	%r14, %rbx	# D.95427, D.95430
	movq	%rbx, %rdx	# D.95430, tmp200
	sarq	$3, %rdx	#, tmp200
	imulq	%rdx, %rax	# tmp200, D.95430
.LVL154:
.LBE2857:
.LBE2858:
.LBB2859:
.LBB2860:
	.file 14 "/usr/include/c++/5/bits/stl_algobase.h"
	.loc 14 224 0
	testq	%rax, %rax	# D.95430
	je	.L108	#,
.LVL155:
.LBE2860:
.LBE2859:
	.loc 8 1427 0
	leaq	(%rax,%rax), %rdx	#, __len
.LVL156:
	.loc 8 1428 0
	cmpq	%rdx, %rax	# __len, D.95430
	jbe	.L127	#,
	movq	$-16, %rdi	#, D.95426
	movabsq	$256204778801521550, %r13	#, D.95426
.LVL157:
.L86:
.LEHB6:
.LBE2863:
.LBE2866:
.LBB2867:
.LBB2868:
.LBB2869:
.LBB2870:
.LBB2871:
	.loc 10 104 0
	call	_Znwm	#
.LVL158:
.LEHE6:
	movq	8(%rbp), %rdi	# MEM[(struct info * *)this_3(D) + 8B], D.95427
	movq	0(%rbp), %r14	# MEM[(struct info * *)this_3(D)], D.95427
	movq	%rax, %r12	#, __new_finish
	movq	%rdi, %rbx	# D.95427, D.95430
	subq	%r14, %rbx	# D.95427, D.95430
.LVL159:
.L106:
.LBE2871:
.LBE2870:
.LBE2869:
.LBE2868:
.LBE2867:
.LBB2874:
.LBB2875:
.LBB2876:
	.loc 10 120 0
	addq	%r12, %rbx	# __new_finish, D.95427
.LVL160:
	je	.L88	#,
.LVL161:
	movq	(%r15), %rsi	# MEM[(char * *)__args#0_9(D)], D.95432
.LBB2877:
.LBB2878:
.LBB2879:
.LBB2880:
.LBB2881:
.LBB2882:
	.loc 3 141 0
	leaq	16(%rbx), %r14	#, D.95433
.LVL162:
.LBE2882:
.LBE2881:
.LBB2883:
.LBB2884:
.LBB2885:
.LBB2886:
	.loc 3 195 0
	movq	%rbx, %rdi	# D.95427,
.LBE2886:
.LBE2885:
.LBE2884:
.LBE2883:
.LBB2890:
.LBB2891:
	.loc 3 109 0
	movq	%r14, (%rbx)	# D.95433, MEM[(struct _Alloc_hider *)_11]._M_p
.LVL163:
.LBE2891:
.LBE2890:
.LBB2892:
.LBB2889:
.LBB2888:
.LBB2887:
	.loc 3 195 0
	movq	%rsi, %rdx	# D.95432, D.95432
	addq	8(%r15), %rdx	# MEM[(long unsigned int *)__args#0_9(D) + 8B], D.95432
.LVL164:
.LEHB7:
	call	_ZNSt7__cxx1112basic_stringIcSt11char_traitsIcESaIcEE12_M_constructIPcEEvT_S7_St20forward_iterator_tag.isra.33	#
.LVL165:
.LEHE7:
	movq	32(%r15), %rsi	# MEM[(char * *)__args#0_9(D) + 32B], D.95432
.LBE2887:
.LBE2888:
.LBE2889:
.LBE2892:
.LBE2880:
.LBE2879:
.LBB2893:
.LBB2894:
.LBB2895:
.LBB2896:
	.loc 3 141 0
	leaq	48(%rbx), %rax	#, tmp208
.LVL166:
	leaq	32(%rbx), %rdi	#, tmp207
.LVL167:
	movq	%rax, 32(%rbx)	# tmp208, MEM[(struct _Alloc_hider *)_11 + 32B]._M_p
.LVL168:
.LBE2896:
.LBE2895:
.LBB2897:
.LBB2898:
.LBB2899:
.LBB2900:
	.loc 3 195 0
	movq	%rsi, %rdx	# D.95432, D.95432
	addq	40(%r15), %rdx	# MEM[(long unsigned int *)__args#0_9(D) + 40B], D.95432
.LVL169:
.LEHB8:
	call	_ZNSt7__cxx1112basic_stringIcSt11char_traitsIcESaIcEE12_M_constructIPcEEvT_S7_St20forward_iterator_tag.isra.33	#
.LVL170:
.LEHE8:
.LBE2900:
.LBE2899:
.LBE2898:
.LBE2897:
.LBE2894:
.LBE2893:
	.loc 5 9 0
	movl	64(%r15), %eax	# __args#0_9(D)->qnty, __args#0_9(D)->qnty
	movq	8(%rbp), %rdi	# this_3(D)->D.85959._M_impl._M_finish, D.95427
	movq	0(%rbp), %r14	# this_3(D)->D.85959._M_impl._M_start, D.95427
	movl	%eax, 64(%rbx)	# __args#0_9(D)->qnty, _11->qnty
.LVL171:
.L88:
.LBE2878:
.LBE2877:
.LBE2876:
.LBE2875:
.LBE2874:
.LBB2912:
.LBB2913:
.LBB2914:
.LBB2915:
.LBB2916:
.LBB2917:
	.file 15 "/usr/include/c++/5/bits/stl_uninitialized.h"
	.loc 15 74 0
	cmpq	%rdi, %r14	# D.95427, D.95427
	je	.L92	#,
	leaq	72(%r14), %rdx	#, D.95427
	leaq	48(%r14), %rax	#, ivtmp.368
	subq	%rdx, %rdi	# D.95427, D.95425
	movabsq	$1024819115206086201, %rdx	#, tmp221
	shrq	$3, %rdi	#, D.95425
	imulq	%rdx, %rdi	# tmp221, D.95425
	movabsq	$2305843009213693951, %rdx	#, tmp222
	andq	%rdx, %rdi	# tmp222, D.95425
	leaq	(%rdi,%rdi,8), %rdx	#, D.95425
	leaq	120(%r14,%rdx,8), %r8	#, D.95425
	movq	%r12, %rdx	# __new_finish, __new_finish
	jmp	.L98	#
.LVL172:
	.p2align 4,,10
	.p2align 3
.L94:
.LBB2918:
.LBB2919:
.LBB2920:
.LBB2921:
.LBB2922:
.LBB2923:
.LBB2924:
.LBB2925:
	.loc 3 127 0
	movq	%rsi, (%rdx)	# D.95432, MEM[base: __new_finish_159, offset: 0B]
.LVL173:
.LBE2925:
.LBE2924:
	.loc 3 487 0
	movq	-32(%rax), %rsi	# MEM[base: _181, offset: -32B], D.95426
.LVL174:
.LBB2926:
.LBB2927:
	.loc 3 159 0
	movq	%rsi, 16(%rdx)	# D.95426, MEM[base: __new_finish_159, offset: 16B]
.LVL175:
.L95:
	movq	-40(%rax), %rsi	# MEM[base: _181, offset: -40B], D.95426
.LVL176:
.LBE2927:
.LBE2926:
.LBB2928:
.LBB2929:
	.loc 3 131 0
	movq	%rsi, 8(%rdx)	# D.95426, MEM[base: __new_finish_159, offset: 8B]
.LVL177:
.LBE2929:
.LBE2928:
.LBB2930:
.LBB2931:
	.loc 3 127 0
	movq	%rcx, -48(%rax)	# D.95428, MEM[base: _181, offset: -48B]
.LVL178:
.LBE2931:
.LBE2930:
.LBE2923:
.LBE2922:
.LBB2941:
.LBB2942:
.LBB2943:
.LBB2944:
	.loc 3 109 0
	leaq	48(%rdx), %rcx	#, tmp229
.LBE2944:
.LBE2943:
.LBE2942:
.LBE2941:
.LBB2962:
.LBB2939:
.LBB2932:
.LBB2933:
.LBB2934:
	.loc 3 131 0
	movq	$0, -40(%rax)	#, MEM[base: _181, offset: -40B]
.LVL179:
.LBE2934:
.LBE2933:
.LBB2935:
.LBB2936:
	.loc 4 243 0
	movb	$0, -32(%rax)	#, MEM[base: _181, offset: 18446744073709551584]
.LVL180:
.LBE2936:
.LBE2935:
.LBE2932:
.LBE2939:
.LBE2962:
.LBB2963:
.LBB2960:
.LBB2946:
.LBB2945:
	.loc 3 109 0
	movq	%rcx, 32(%rdx)	# tmp229, MEM[base: __new_finish_159, offset: 32B]
.LVL181:
	movq	-16(%rax), %rcx	# MEM[base: _181, offset: -16B], D.95432
.LBE2945:
.LBE2946:
	.loc 3 479 0
	cmpq	%rax, %rcx	# ivtmp.368, D.95432
	je	.L128	#,
.LVL182:
.LBB2947:
.LBB2948:
	.loc 3 127 0
	movq	%rcx, 32(%rdx)	# D.95432, MEM[base: __new_finish_159, offset: 32B]
.LVL183:
.LBE2948:
.LBE2947:
	.loc 3 487 0
	movq	(%rax), %rcx	# MEM[base: _181, offset: 0B], D.95426
.LVL184:
.LBB2949:
.LBB2950:
	.loc 3 159 0
	movq	%rcx, 48(%rdx)	# D.95426, MEM[base: __new_finish_159, offset: 48B]
.LVL185:
.L97:
	movq	-8(%rax), %rcx	# MEM[base: _181, offset: -8B], D.95426
.LVL186:
.LBE2950:
.LBE2949:
.LBB2951:
.LBB2952:
	.loc 3 131 0
	movq	%rcx, 40(%rdx)	# D.95426, MEM[base: __new_finish_159, offset: 40B]
.LVL187:
.LBE2952:
.LBE2951:
.LBE2960:
.LBE2963:
	.loc 5 9 0
	movl	16(%rax), %ecx	# MEM[base: _181, offset: 16B], D.95434
.LBB2964:
.LBB2961:
.LBB2953:
.LBB2954:
	.loc 3 127 0
	movq	%rax, -16(%rax)	# ivtmp.368, MEM[base: _181, offset: -16B]
.LVL188:
.LBE2954:
.LBE2953:
.LBB2955:
.LBB2956:
.LBB2957:
	.loc 3 131 0
	movq	$0, -8(%rax)	#, MEM[base: _181, offset: -8B]
.LVL189:
.LBE2957:
.LBE2956:
.LBB2958:
.LBB2959:
	.loc 4 243 0
	movb	$0, (%rax)	#, MEM[base: _181, offset: 0]
.LVL190:
.LBE2959:
.LBE2958:
.LBE2955:
.LBE2961:
.LBE2964:
	.loc 5 9 0
	movl	%ecx, 64(%rdx)	# D.95434, MEM[base: __new_finish_159, offset: 64B]
.LVL191:
.L93:
	addq	$72, %rax	#, ivtmp.368
.LBE2921:
.LBE2920:
.LBE2919:
.LBE2918:
	.loc 15 74 0
	addq	$72, %rdx	#, __new_finish
.LVL192:
	cmpq	%rax, %r8	# ivtmp.368, D.95425
	je	.L129	#,
.LVL193:
.L98:
.LBB2969:
.LBB2968:
	.loc 9 75 0
	testq	%rdx, %rdx	# __new_finish
	je	.L93	#,
.LVL194:
.LBB2967:
.LBB2966:
.LBB2965:
.LBB2940:
.LBB2937:
.LBB2938:
	.loc 3 109 0
	leaq	16(%rdx), %rcx	#, tmp228
.LVL195:
	movq	%rcx, (%rdx)	# tmp228, MEM[base: __new_finish_159, offset: 0B]
.LVL196:
	movq	-48(%rax), %rsi	# MEM[base: _181, offset: -48B], D.95432
.LVL197:
	leaq	-32(%rax), %rcx	#, D.95428
.LBE2938:
.LBE2937:
	.loc 3 479 0
	cmpq	%rcx, %rsi	# D.95428, D.95432
	jne	.L94	#,
.LVL198:
	movq	-32(%rax), %r9	# MEM[base: _181, offset: -32B], D.95435
	movq	-24(%rax), %r10	# MEM[base: _181, offset: -32B], D.95435
	movq	%r9, 16(%rdx)	# D.95435, MEM[base: __new_finish_159, offset: 16B]
	movq	%r10, 24(%rdx)	# D.95435, MEM[base: __new_finish_159, offset: 16B]
	jmp	.L95	#
.LVL199:
	.p2align 4,,10
	.p2align 3
.L128:
	movq	(%rax), %rcx	# MEM[base: _93, offset: 0B], D.95435
	movq	8(%rax), %rbx	# MEM[base: _93, offset: 0B], D.95435
	movq	%rcx, 48(%rdx)	# D.95435, MEM[base: __new_finish_159, offset: 48B]
	movq	%rbx, 56(%rdx)	# D.95435, MEM[base: __new_finish_159, offset: 48B]
	jmp	.L97	#
.LVL200:
	.p2align 4,,10
	.p2align 3
.L129:
.LBE2940:
.LBE2965:
.LBE2966:
.LBE2967:
.LBE2968:
.LBE2969:
.LBE2917:
.LBE2916:
.LBE2915:
.LBE2914:
.LBE2913:
.LBE2912:
	.loc 13 436 0
	movq	8(%rbp), %r14	# this_3(D)->D.85959._M_impl._M_finish, D.95427
	movq	0(%rbp), %rbx	# this_3(D)->D.85959._M_impl._M_start, __first
	leaq	9(%rdi,%rdi,8), %rax	#, tmp233
.LVL201:
	.loc 13 425 0
	leaq	72(%r12,%rax,8), %r15	#, __new_finish
.LVL202:
.LBB2970:
.LBB2971:
.LBB2972:
.LBB2973:
.LBB2974:
	.loc 9 102 0
	cmpq	%rbx, %r14	# __first, D.95427
	je	.L99	#,
.LVL203:
	.p2align 4,,10
	.p2align 3
.L102:
	movq	32(%rbx), %rdi	# MEM[base: __first_114, offset: 32B], D.95432
.LVL204:
.LBB2975:
.LBB2976:
.LBB2977:
.LBB2978:
.LBB2979:
	.loc 3 179 0
	leaq	48(%rbx), %rax	#, D.95428
	cmpq	%rax, %rdi	# D.95428, D.95432
	je	.L100	#,
.LVL205:
.LBB2980:
.LBB2981:
.LBB2982:
.LBB2983:
	.loc 10 110 0
	call	_ZdlPv	#
.LVL206:
.L100:
	movq	(%rbx), %rdi	# MEM[base: __first_114, offset: 0B], D.95432
.LVL207:
.LBE2983:
.LBE2982:
.LBE2981:
.LBE2980:
.LBE2979:
.LBE2978:
.LBE2977:
.LBB2984:
.LBB2985:
.LBB2986:
	.loc 3 179 0
	leaq	16(%rbx), %rax	#, D.95428
	cmpq	%rax, %rdi	# D.95428, D.95432
	je	.L101	#,
.LVL208:
.LBB2987:
.LBB2988:
.LBB2989:
.LBB2990:
	.loc 10 110 0
	call	_ZdlPv	#
.LVL209:
.L101:
.LBE2990:
.LBE2989:
.LBE2988:
.LBE2987:
.LBE2986:
.LBE2985:
.LBE2984:
.LBE2976:
.LBE2975:
	.loc 9 102 0
	addq	$72, %rbx	#, __first
.LVL210:
	cmpq	%rbx, %r14	# __first, D.95427
	jne	.L102	#,
.LVL211:
	movq	0(%rbp), %r14	# this_3(D)->D.85959._M_impl._M_start, D.95427
.LVL212:
.L99:
.LBE2974:
.LBE2973:
.LBE2972:
.LBE2971:
.LBE2970:
.LBB2991:
.LBB2992:
	.loc 8 177 0
	testq	%r14, %r14	# D.95427
	je	.L103	#,
.LVL213:
.LBB2993:
.LBB2994:
.LBB2995:
	.loc 10 110 0
	movq	%r14, %rdi	# D.95427,
	call	_ZdlPv	#
.LVL214:
.L103:
.LBE2995:
.LBE2994:
.LBE2993:
.LBE2992:
.LBE2991:
	.loc 13 443 0
	leaq	0(%r13,%r13,8), %rax	#, D.95426
	.loc 13 441 0
	movq	%r12, 0(%rbp)	# __new_finish, this_3(D)->D.85959._M_impl._M_start
	.loc 13 442 0
	movq	%r15, 8(%rbp)	# __new_finish, this_3(D)->D.85959._M_impl._M_finish
	.loc 13 443 0
	leaq	(%r12,%rax,8), %rax	#, tmp242
	movq	%rax, 16(%rbp)	# tmp242, this_3(D)->D.85959._M_impl._M_end_of_storage
	.loc 13 444 0
	addq	$8, %rsp	#,
	.cfi_remember_state
	.cfi_def_cfa_offset 56
	popq	%rbx	#
	.cfi_def_cfa_offset 48
	popq	%rbp	#
	.cfi_def_cfa_offset 40
.LVL215:
	popq	%r12	#
	.cfi_def_cfa_offset 32
	popq	%r13	#
	.cfi_def_cfa_offset 24
	popq	%r14	#
	.cfi_def_cfa_offset 16
	popq	%r15	#
	.cfi_def_cfa_offset 8
.LVL216:
	ret
.LVL217:
	.p2align 4,,10
	.p2align 3
.L108:
	.cfi_restore_state
.LBB2996:
.LBB2864:
.LBB2862:
.LBB2861:
	.loc 14 224 0
	movl	$72, %edi	#, D.95426
.LBE2861:
.LBE2862:
	.loc 8 1427 0
	movl	$1, %r13d	#, D.95426
	jmp	.L86	#
.LVL218:
.L92:
.LBE2864:
.LBE2996:
	.loc 13 425 0
	leaq	72(%r12), %r15	#, __new_finish
.LVL219:
	jmp	.L99	#
.LVL220:
.L127:
.LBB2997:
.LBB2865:
	.loc 8 1428 0
	movabsq	$256204778801521550, %r13	#, tmp203
	cmpq	%r13, %rdx	# tmp203, __len
	jbe	.L87	#,
	movq	$-16, %rdi	#, D.95426
	jmp	.L86	#
.LVL221:
.L113:
	movq	%rax, %r13	#, tmp214
	jmp	.L89	#
.LVL222:
.L111:
	jmp	.L91	#
.LVL223:
.L87:
.LBE2865:
.LBE2997:
.LBB2998:
.LBB2872:
	.loc 8 170 0
	testq	%rdx, %rdx	# __len
	jne	.L130	#,
	xorl	%r13d, %r13d	# D.95426
	xorl	%r12d, %r12d	# __new_finish
	jmp	.L106	#
.LVL224:
.L89:
	movq	(%rbx), %rdi	# MEM[(char * *)_11], D.95432
.LVL225:
.LBE2872:
.LBE2998:
.LBB2999:
.LBB2911:
.LBB2910:
.LBB2909:
.LBB2908:
.LBB2901:
.LBB2902:
.LBB2903:
	.loc 3 179 0
	cmpq	%rdi, %r14	# D.95432, D.95433
	je	.L90	#,
.LVL226:
.LBB2904:
.LBB2905:
.LBB2906:
.LBB2907:
	.loc 10 110 0
	call	_ZdlPv	#
.LVL227:
.L90:
	movq	%r13, %rax	# tmp214, tmp213
.LVL228:
.L91:
.LBE2907:
.LBE2906:
.LBE2905:
.LBE2904:
.LBE2903:
.LBE2902:
.LBE2901:
.LBE2908:
.LBE2909:
.LBE2910:
.LBE2911:
.LBE2999:
	.loc 13 427 0
	movq	%rax, %rdi	# tmp213,
	call	__cxa_begin_catch	#
.LVL229:
	.loc 13 429 0
	testq	%r12, %r12	# __new_finish
	je	.L131	#,
.LVL230:
.LBB3000:
.LBB3001:
.LBB3002:
.LBB3003:
.LBB3004:
	.loc 10 110 0
	movq	%r12, %rdi	# __new_finish,
	call	_ZdlPv	#
.LVL231:
.L107:
.LEHB9:
.LBE3004:
.LBE3003:
.LBE3002:
.LBE3001:
.LBE3000:
	.loc 13 434 0
	call	__cxa_rethrow	#
.LVL232:
.LEHE9:
.L130:
	salq	$4, %rax	#, tmp247
.LBB3005:
.LBB2873:
	.loc 8 170 0
	movq	%rdx, %r13	# __len, D.95426
	movq	%rax, %rdi	# tmp247, tmp247
	addq	%rdx, %rdi	# __len, tmp248
	salq	$3, %rdi	#, D.95426
	jmp	.L86	#
.LVL233:
.L112:
	movq	%rax, %rbx	#, tmp245
.LVL234:
	jmp	.L105	#
.LVL235:
.L131:
.LBE2873:
.LBE3005:
.LBB3006:
.LBB3007:
.LBB3008:
	.loc 10 124 0
	movq	8(%rbp), %rdi	# MEM[(struct info * *)this_3(D) + 8B], MEM[(struct info * *)this_3(D) + 8B]
	subq	0(%rbp), %rdi	# MEM[(struct info * *)this_3(D)], D.95430
	call	_ZN4infoD1Ev	#
.LVL236:
	jmp	.L107	#
.LVL237:
.L105:
.LBE3008:
.LBE3007:
.LBE3006:
	.loc 13 427 0
	call	__cxa_end_catch	#
.LVL238:
	movq	%rbx, %rdi	# tmp245,
.LEHB10:
	call	_Unwind_Resume	#
.LVL239:
.LEHE10:
	.cfi_endproc
.LFE8391:
	.section	.gcc_except_table
	.align 4
.LLSDA8391:
	.byte	0xff
	.byte	0x3
	.uleb128 .LLSDATT8391-.LLSDATTD8391
.LLSDATTD8391:
	.byte	0x1
	.uleb128 .LLSDACSE8391-.LLSDACSB8391
.LLSDACSB8391:
	.uleb128 .LEHB6-.LFB8391
	.uleb128 .LEHE6-.LEHB6
	.uleb128 0
	.uleb128 0
	.uleb128 .LEHB7-.LFB8391
	.uleb128 .LEHE7-.LEHB7
	.uleb128 .L111-.LFB8391
	.uleb128 0x1
	.uleb128 .LEHB8-.LFB8391
	.uleb128 .LEHE8-.LEHB8
	.uleb128 .L113-.LFB8391
	.uleb128 0x3
	.uleb128 .LEHB9-.LFB8391
	.uleb128 .LEHE9-.LEHB9
	.uleb128 .L112-.LFB8391
	.uleb128 0
	.uleb128 .LEHB10-.LFB8391
	.uleb128 .LEHE10-.LEHB10
	.uleb128 0
	.uleb128 0
.LLSDACSE8391:
	.byte	0x1
	.byte	0
	.byte	0
	.byte	0x7d
	.align 4
	.long	0

.LLSDATT8391:
	.section	.text._ZNSt6vectorI4infoSaIS0_EE19_M_emplace_back_auxIJRKS0_EEEvDpOT_,"axG",@progbits,_ZNSt6vectorI4infoSaIS0_EE19_M_emplace_back_auxIJRKS0_EEEvDpOT_,comdat
	.size	_ZNSt6vectorI4infoSaIS0_EE19_M_emplace_back_auxIJRKS0_EEEvDpOT_, .-_ZNSt6vectorI4infoSaIS0_EE19_M_emplace_back_auxIJRKS0_EEEvDpOT_
	.section	.text.unlikely._ZNSt6vectorI4infoSaIS0_EE19_M_emplace_back_auxIJRKS0_EEEvDpOT_,"axG",@progbits,_ZNSt6vectorI4infoSaIS0_EE19_M_emplace_back_auxIJRKS0_EEEvDpOT_,comdat
.LCOLDE11:
	.section	.text._ZNSt6vectorI4infoSaIS0_EE19_M_emplace_back_auxIJRKS0_EEEvDpOT_,"axG",@progbits,_ZNSt6vectorI4infoSaIS0_EE19_M_emplace_back_auxIJRKS0_EEEvDpOT_,comdat
.LHOTE11:
	.weak	_ZNSt6vectorI4infoSaIS0_EE19_M_emplace_back_auxIIRKS0_EEEvDpOT_
	.set	_ZNSt6vectorI4infoSaIS0_EE19_M_emplace_back_auxIIRKS0_EEEvDpOT_,_ZNSt6vectorI4infoSaIS0_EE19_M_emplace_back_auxIJRKS0_EEEvDpOT_
	.section	.rodata.str1.1
.LC12:
	.string	"Quantity?\t:"
.LC13:
	.string	"Notes?\t:"
.LC14:
	.string	"No entry found. Updating\n"
	.section	.text.unlikely
.LCOLDB15:
	.text
.LHOTB15:
	.p2align 4,,15
	.globl	_Z5enterNSt7__cxx1112basic_stringIcSt11char_traitsIcESaIcEEE
	.type	_Z5enterNSt7__cxx1112basic_stringIcSt11char_traitsIcESaIcEEE, @function
_Z5enterNSt7__cxx1112basic_stringIcSt11char_traitsIcESaIcEEE:
.LFB8029:
	.loc 5 23 0
	.cfi_startproc
	.cfi_personality 0x3,__gxx_personality_v0
	.cfi_lsda 0x3,.LLSDA8029
.LVL240:
	pushq	%r15	#
	.cfi_def_cfa_offset 16
	.cfi_offset 15, -16
	pushq	%r14	#
	.cfi_def_cfa_offset 24
	.cfi_offset 14, -24
.LBB4121:
.LBB4122:
	.loc 6 561 0
	movl	$11, %edx	#,
.LBE4122:
.LBE4121:
	.loc 5 23 0
	pushq	%r13	#
	.cfi_def_cfa_offset 32
	.cfi_offset 13, -32
	pushq	%r12	#
	.cfi_def_cfa_offset 40
	.cfi_offset 12, -40
.LBB4126:
.LBB4123:
	.loc 6 561 0
	movl	$.LC12, %esi	#,
.LBE4123:
.LBE4126:
	.loc 5 23 0
	pushq	%rbp	#
	.cfi_def_cfa_offset 48
	.cfi_offset 6, -48
	pushq	%rbx	#
	.cfi_def_cfa_offset 56
	.cfi_offset 3, -56
	subq	$808, %rsp	#,
	.cfi_def_cfa_offset 864
	.loc 5 23 0
	movq	%fs:40, %rax	#, tmp574
	movq	%rax, 792(%rsp)	# tmp574, D.96708
	xorl	%eax, %eax	# tmp574
.LVL241:
.LBB4127:
.LBB4128:
.LBB4129:
	.loc 3 109 0
	leaq	64(%rsp), %rax	#, tmp280
.LVL242:
.LBE4129:
.LBE4128:
.LBE4127:
	.loc 5 23 0
	movq	%rdi, 24(%rsp)	# temp_name, %sfp
.LBB4137:
.LBB4124:
	.loc 6 561 0
	movl	$_ZSt4cout, %edi	#,
.LVL243:
.LBE4124:
.LBE4137:
.LBB4138:
.LBB4131:
.LBB4132:
.LBB4133:
	.loc 3 131 0
	movq	$0, 56(%rsp)	#, MEM[(size_type *)&temp_notes + 8B]
.LBE4133:
.LBE4132:
.LBB4134:
.LBB4135:
	.loc 4 243 0
	movb	$0, 64(%rsp)	#, MEM[(char_type &)&temp_notes + 16]
.LBE4135:
.LBE4134:
.LBE4131:
.LBB4136:
.LBB4130:
	.loc 3 109 0
	movq	%rax, 48(%rsp)	# tmp280, MEM[(struct _Alloc_hider *)&temp_notes]._M_p
.LVL244:
.LEHB11:
.LBE4130:
.LBE4136:
.LBE4138:
.LBB4139:
.LBB4125:
	.loc 6 561 0
	call	_ZSt16__ostream_insertIcSt11char_traitsIcEERSt13basic_ostreamIT_T0_ES6_PKS3_l	#
.LVL245:
.LBE4125:
.LBE4139:
	.loc 5 27 0
	leaq	44(%rsp), %rsi	#, tmp577
	movl	$_ZSt3cin, %edi	#,
	call	_ZNSirsERi	#
.LVL246:
.LBB4140:
.LBB4141:
	.loc 6 561 0
	movl	$8, %edx	#,
	movl	$.LC13, %esi	#,
	movl	$_ZSt4cout, %edi	#,
	call	_ZSt16__ostream_insertIcSt11char_traitsIcEERSt13basic_ostreamIT_T0_ES6_PKS3_l	#
.LVL247:
.LBE4141:
.LBE4140:
	.loc 5 29 0
	movl	$10, %edx	#,
	movl	$100, %esi	#,
	movl	$_ZSt3cin, %edi	#,
	call	_ZNSi6ignoreEli	#
.LVL248:
.LBB4142:
.LBB4143:
	.loc 3 5214 0
	movq	_ZSt3cin(%rip), %rax	# cin._vptr.basic_istream, cin._vptr.basic_istream
.LBB4144:
.LBB4145:
	.loc 7 450 0
	movq	-24(%rax), %rax	# MEM[(long int *)_7 + -24B], MEM[(long int *)_7 + -24B]
	movq	_ZSt3cin+240(%rax), %rbx	# MEM[(const struct basic_ios *)_76]._M_ctype, D.96694
.LVL249:
.LBB4146:
.LBB4147:
	.loc 7 49 0
	testq	%rbx, %rbx	# D.96694
	je	.L316	#,
.LVL250:
.LBE4147:
.LBE4146:
.LBB4149:
.LBB4150:
	.loc 1 874 0
	cmpb	$0, 56(%rbx)	#, MEM[(const struct ctype *)_9]._M_widen_ok
	je	.L134	#,
	movsbl	67(%rbx), %edx	# MEM[(const struct ctype *)_9]._M_widen, D.96697
.LVL251:
.L135:
.LBE4150:
.LBE4149:
.LBE4145:
.LBE4144:
	.loc 3 5214 0
	leaq	48(%rsp), %rsi	#, tmp578
.LVL252:
	movl	$_ZSt3cin, %edi	#,
	call	_ZSt7getlineIcSt11char_traitsIcESaIcEERSt13basic_istreamIT_T0_ES7_RNSt7__cxx1112basic_stringIS4_S5_T1_EES4_	#
.LVL253:
.LBE4143:
.LBE4142:
.LBB4162:
.LBB4163:
.LBB4164:
.LBB4165:
	.loc 3 109 0
	leaq	96(%rsp), %rax	#, tmp289
.LVL254:
.LBE4165:
.LBE4164:
.LBB4167:
.LBB4168:
.LBB4169:
.LBB4170:
	.loc 3 195 0
	leaq	80(%rsp), %rdi	#, tmp583
.LVL255:
.LBE4170:
.LBE4169:
.LBE4168:
.LBE4167:
.LBB4174:
.LBB4166:
	.loc 3 109 0
	movq	%rax, 80(%rsp)	# tmp289, MEM[(struct _Alloc_hider *)&D.86226]._M_p
.LVL256:
	movq	24(%rsp), %rax	# %sfp, temp_name
	movq	(%rax), %rsi	# MEM[(char * *)temp_name_10(D)], D.96695
.LVL257:
.LBE4166:
.LBE4174:
.LBB4175:
.LBB4173:
.LBB4172:
.LBB4171:
	.loc 3 195 0
	movq	%rsi, %rdx	# D.96695, D.96695
	addq	8(%rax), %rdx	# MEM[(long unsigned int *)temp_name_10(D) + 8B], D.96695
.LVL258:
	call	_ZNSt7__cxx1112basic_stringIcSt11char_traitsIcESaIcEE12_M_constructIPcEEvT_S7_St20forward_iterator_tag.isra.33	#
.LVL259:
.LEHE11:
	movq	80(%rsp), %rsi	# MEM[(char * *)&D.86226], D.96695
.LBE4171:
.LBE4172:
.LBE4173:
.LBE4175:
.LBE4163:
.LBE4162:
.LBB4176:
.LBB4177:
.LBB4178:
	.file 16 "/usr/include/c++/5/bits/stl_iterator.h"
	.loc 16 741 0
	movq	entry+8(%rip), %rax	# MEM[(struct info * const &)&entry + 8], D.96700
.LBE4178:
.LBE4177:
.LBE4176:
.LBB4181:
.LBB4182:
.LBB4183:
.LBB4184:
.LBB4185:
.LBB4186:
.LBB4187:
.LBB4188:
.LBB4189:
	.loc 3 195 0
	leaq	112(%rsp), %rdi	#, tmp587
.LBE4189:
.LBE4188:
.LBE4187:
.LBE4186:
.LBE4185:
.LBE4184:
.LBE4183:
.LBE4182:
.LBE4181:
.LBB4865:
.LBB4866:
.LBB4867:
	.loc 16 741 0
	movq	entry(%rip), %rbx	# MEM[(struct info * const &)&entry], __first$_M_current
.LBE4867:
.LBE4866:
.LBE4865:
.LBB4868:
.LBB4855:
.LBB4204:
.LBB4202:
.LBB4200:
.LBB4196:
.LBB4194:
.LBB4192:
.LBB4190:
	.loc 3 195 0
	movq	%rsi, %rdx	# D.96695, D.96695
	addq	88(%rsp), %rdx	# MEM[(long unsigned int *)&D.86226 + 8B], D.96695
.LBE4190:
.LBE4192:
.LBE4194:
.LBE4196:
.LBE4200:
.LBE4202:
.LBE4204:
.LBE4855:
.LBE4868:
.LBB4869:
.LBB4180:
.LBB4179:
	.loc 16 741 0
	movq	%rax, 16(%rsp)	# D.96700, %sfp
.LVL260:
.LBE4179:
.LBE4180:
.LBE4869:
.LBB4870:
.LBB4856:
.LBB4205:
.LBB4203:
.LBB4201:
.LBB4197:
.LBB4198:
	.loc 3 109 0
	leaq	128(%rsp), %rax	#, tmp296
.LVL261:
	movq	%rax, 112(%rsp)	# tmp296, MEM[(struct _Alloc_hider *)&D.95551]._M_p
.LVL262:
.LEHB12:
.LBE4198:
.LBE4197:
.LBB4199:
.LBB4195:
.LBB4193:
.LBB4191:
	.loc 3 195 0
	call	_ZNSt7__cxx1112basic_stringIcSt11char_traitsIcESaIcEE12_M_constructIPcEEvT_S7_St20forward_iterator_tag.isra.33	#
.LVL263:
.LEHE12:
	movq	112(%rsp), %rsi	# MEM[(char * *)&D.95551], D.96695
.LBE4191:
.LBE4193:
.LBE4195:
.LBE4199:
.LBE4201:
.LBE4203:
.LBE4205:
.LBB4206:
.LBB4207:
.LBB4208:
.LBB4209:
.LBB4210:
.LBB4211:
.LBB4212:
	.loc 3 109 0
	leaq	192(%rsp), %rax	#, tmp301
.LVL264:
.LBE4212:
.LBE4211:
.LBB4214:
.LBB4215:
.LBB4216:
.LBB4217:
	.loc 3 195 0
	leaq	176(%rsp), %rdi	#, tmp590
.LVL265:
.LBE4217:
.LBE4216:
.LBE4215:
.LBE4214:
.LBB4221:
.LBB4213:
	.loc 3 109 0
	movq	%rax, 176(%rsp)	# tmp301, MEM[(struct _Alloc_hider *)&D.95637]._M_p
.LVL266:
.LBE4213:
.LBE4221:
.LBB4222:
.LBB4220:
.LBB4219:
.LBB4218:
	.loc 3 195 0
	movq	%rsi, %rdx	# D.96695, D.96695
	addq	120(%rsp), %rdx	# MEM[(long unsigned int *)&D.95551 + 8B], D.96695
.LVL267:
.LEHB13:
	call	_ZNSt7__cxx1112basic_stringIcSt11char_traitsIcESaIcEE12_M_constructIPcEEvT_S7_St20forward_iterator_tag.isra.33	#
.LVL268:
.LEHE13:
	movq	176(%rsp), %rsi	# MEM[(char * *)&D.95637], D.96695
.LBE4218:
.LBE4219:
.LBE4220:
.LBE4222:
.LBE4210:
.LBE4209:
.LBE4208:
.LBB4223:
.LBB4224:
.LBB4225:
.LBB4226:
.LBB4227:
.LBB4228:
	.loc 3 109 0
	leaq	160(%rsp), %rax	#, tmp306
.LVL269:
.LBE4228:
.LBE4227:
.LBB4230:
.LBB4231:
.LBB4232:
.LBB4233:
	.loc 3 195 0
	leaq	144(%rsp), %rdi	#, tmp593
.LVL270:
.LBE4233:
.LBE4232:
.LBE4231:
.LBE4230:
.LBB4237:
.LBB4229:
	.loc 3 109 0
	movq	%rax, 144(%rsp)	# tmp306, MEM[(struct _Alloc_hider *)&D.95552]._M_p
.LVL271:
.LBE4229:
.LBE4237:
.LBB4238:
.LBB4236:
.LBB4235:
.LBB4234:
	.loc 3 195 0
	movq	%rsi, %rdx	# D.96695, D.96695
	addq	184(%rsp), %rdx	# MEM[(long unsigned int *)&D.95637 + 8B], D.96695
.LVL272:
.LEHB14:
	call	_ZNSt7__cxx1112basic_stringIcSt11char_traitsIcESaIcEE12_M_constructIPcEEvT_S7_St20forward_iterator_tag.isra.33	#
.LVL273:
.LEHE14:
	movq	176(%rsp), %rdi	# MEM[(char * *)&D.95637], D.96695
.LVL274:
.LBE4234:
.LBE4235:
.LBE4236:
.LBE4238:
.LBE4226:
.LBE4225:
.LBE4224:
.LBE4223:
.LBB4239:
.LBB4240:
.LBB4241:
.LBB4242:
	.loc 3 179 0
	leaq	192(%rsp), %rax	#, tmp311
	cmpq	%rax, %rdi	# tmp311, D.96695
	je	.L136	#,
.LVL275:
.LBB4243:
.LBB4244:
.LBB4245:
.LBB4246:
	.loc 10 110 0
	call	_ZdlPv	#
.LVL276:
.L136:
	movq	144(%rsp), %rsi	# MEM[(char * *)&D.95552], D.96695
.LBE4246:
.LBE4245:
.LBE4244:
.LBE4243:
.LBE4242:
.LBE4241:
.LBE4240:
.LBE4239:
.LBE4207:
.LBE4206:
.LBB4252:
.LBB4253:
.LBB4254:
.LBB4255:
.LBB4256:
.LBB4257:
.LBB4258:
.LBB4259:
	.loc 3 109 0
	leaq	224(%rsp), %rax	#, tmp313
.LVL277:
.LBE4259:
.LBE4258:
.LBB4261:
.LBB4262:
.LBB4263:
.LBB4264:
	.loc 3 195 0
	leaq	208(%rsp), %rdi	#, tmp597
.LVL278:
.LBE4264:
.LBE4263:
.LBE4262:
.LBE4261:
.LBB4268:
.LBB4260:
	.loc 3 109 0
	movq	%rax, 208(%rsp)	# tmp313, MEM[(struct _Alloc_hider *)&D.95701]._M_p
.LVL279:
.LBE4260:
.LBE4268:
.LBB4269:
.LBB4267:
.LBB4266:
.LBB4265:
	.loc 3 195 0
	movq	%rsi, %rdx	# D.96695, D.96695
	addq	152(%rsp), %rdx	# MEM[(long unsigned int *)&D.95552 + 8B], D.96695
.LVL280:
.LEHB15:
	call	_ZNSt7__cxx1112basic_stringIcSt11char_traitsIcESaIcEE12_M_constructIPcEEvT_S7_St20forward_iterator_tag.isra.33	#
.LVL281:
.LEHE15:
.LBE4265:
.LBE4266:
.LBE4267:
.LBE4269:
.LBE4257:
.LBE4256:
.LBE4255:
.LBE4254:
.LBB4270:
.LBB4271:
.LBB4272:
.LBB4273:
	.loc 16 926 0
	movq	16(%rsp), %rax	# %sfp, D.96696
	movabsq	$-8198552921648689607, %rdx	#, tmp326
	subq	%rbx, %rax	# __first$_M_current, D.96696
	sarq	$3, %rax	#, tmp324
	imulq	%rdx, %rax	# tmp326, tmp325
.LVL282:
.LBE4273:
.LBE4272:
	.file 17 "/usr/include/c++/5/bits/stl_algo.h"
	.loc 17 116 0
	movq	%rax, %rdx	# D.96696, __trip_count
	sarq	$2, %rdx	#, __trip_count
.LVL283:
	.loc 17 118 0
	testq	%rdx, %rdx	# __trip_count
	jle	.L141	#,
	leaq	(%rdx,%rdx,8), %r13	#, D.96701
.LBB4274:
.LBB4275:
.LBB4276:
.LBB4277:
.LBB4278:
.LBB4279:
.LBB4280:
.LBB4281:
	.loc 3 109 0
	leaq	336(%rsp), %rbp	#, tmp571
.LBE4281:
.LBE4280:
.LBE4279:
.LBE4278:
.LBE4277:
.LBE4276:
.LBE4275:
.LBE4274:
.LBB4339:
.LBB4340:
.LBB4341:
.LBB4342:
.LBB4343:
.LBB4344:
.LBB4345:
.LBB4346:
	leaq	416(%rsp), %r12	#, tmp573
	salq	$5, %r13	#, tmp330
	leaq	(%rbx,%r13), %rax	#, D.96700
	movq	%rax, (%rsp)	# D.96700, %sfp
	jmp	.L175	#
.LVL284:
	.p2align 4,,10
	.p2align 3
.L321:
.LBE4346:
.LBE4345:
.LBE4344:
.LBE4343:
.LBE4342:
.LBE4341:
.LBE4340:
.LBE4339:
.LBB4404:
.LBB4405:
.LBB4406:
.LBB4407:
.LBB4408:
.LBB4409:
.LBB4410:
.LBB4411:
	.loc 4 262 0
	movq	208(%rsp), %rsi	# MEM[(char * *)&D.95701],
	movq	%r14, %rdi	# D.96695,
	movq	%rcx, 8(%rsp)	# D.96699, %sfp
	call	memcmp	#
.LVL285:
.LBE4411:
.LBE4410:
	.loc 3 2319 0
	testl	%eax, %eax	# __r
.LBB4414:
.LBB4412:
	.loc 4 262 0
	movl	%eax, %r13d	#, __r
.LVL286:
.LBE4412:
.LBE4414:
	.loc 3 2319 0
	movq	8(%rsp), %rcx	# %sfp, D.96699
	je	.L142	#,
.LVL287:
.L147:
	movq	272(%rsp), %rdi	# MEM[(char * *)&D.95732 + 32B], D.96695
.LVL288:
.LBE4409:
.LBE4408:
.LBE4407:
.LBE4406:
.LBB4421:
.LBB4422:
.LBB4423:
.LBB4424:
.LBB4425:
	.loc 3 179 0
	leaq	288(%rsp), %rdx	#, tmp352
	cmpq	%rdx, %rdi	# tmp352, D.96695
	je	.L148	#,
.LVL289:
.LBB4426:
.LBB4427:
.LBB4428:
.LBB4429:
	.loc 10 110 0
	call	_ZdlPv	#
.LVL290:
	movq	240(%rsp), %r14	# MEM[(char * *)&D.95732], D.96695
.LVL291:
.L148:
.LBE4429:
.LBE4428:
.LBE4427:
.LBE4426:
.LBE4425:
.LBE4424:
.LBE4423:
.LBE4422:
.LBB4430:
.LBB4431:
.LBB4432:
	.loc 3 179 0
	leaq	256(%rsp), %rdx	#, tmp354
	cmpq	%rdx, %r14	# tmp354, D.96695
	je	.L149	#,
.LVL292:
.LBB4433:
.LBB4434:
.LBB4435:
.LBB4436:
	.loc 10 110 0
	movq	%r14, %rdi	# D.96695,
	call	_ZdlPv	#
.LVL293:
.L149:
.LBE4436:
.LBE4435:
.LBE4434:
.LBE4433:
.LBE4432:
.LBE4431:
.LBE4430:
.LBE4421:
.LBE4405:
.LBE4404:
	.loc 17 120 0
	testl	%r13d, %r13d	# __r
	je	.L242	#,
.LVL294:
.LBB4470:
.LBB4336:
.LBB4304:
.LBB4302:
.LBB4289:
.LBB4288:
.LBB4283:
.LBB4282:
	.loc 3 109 0
	movq	%rbp, 320(%rsp)	# tmp571, MEM[(struct _Alloc_hider *)&D.95844]._M_p
.LVL295:
	movq	72(%rbx), %rsi	# MEM[base: __first$_M_current_236, offset: 72B], D.96695
.LVL296:
.LBE4282:
.LBE4283:
.LBB4284:
.LBB4285:
.LBB4286:
.LBB4287:
	.loc 3 195 0
	leaq	320(%rsp), %rdi	#, tmp616
.LVL297:
	movq	%rsi, %rdx	# D.96695, D.96695
	addq	80(%rbx), %rdx	# MEM[base: __first$_M_current_236, offset: 80B], D.96695
.LVL298:
.LEHB16:
	call	_ZNSt7__cxx1112basic_stringIcSt11char_traitsIcESaIcEE12_M_constructIPcEEvT_S7_St20forward_iterator_tag.isra.33	#
.LVL299:
.LEHE16:
.LBE4287:
.LBE4286:
.LBE4285:
.LBE4284:
.LBE4288:
.LBE4289:
.LBB4290:
.LBB4291:
.LBB4292:
.LBB4293:
	.loc 3 109 0
	leaq	368(%rsp), %rax	#, tmp361
.LVL300:
	movq	%rax, 352(%rsp)	# tmp361, MEM[(struct _Alloc_hider *)&D.95844 + 32B]._M_p
.LVL301:
	movq	104(%rbx), %rsi	# MEM[base: __first$_M_current_236, offset: 104B], D.96695
.LVL302:
.LBE4293:
.LBE4292:
.LBB4294:
.LBB4295:
.LBB4296:
.LBB4297:
	.loc 3 195 0
	leaq	320(%rsp), %rax	#, tmp619
.LVL303:
	leaq	32(%rax), %rdi	#, tmp365
	movq	%rsi, %rdx	# D.96695, D.96695
	addq	112(%rbx), %rdx	# MEM[base: __first$_M_current_236, offset: 112B], D.96695
.LVL304:
.LEHB17:
	call	_ZNSt7__cxx1112basic_stringIcSt11char_traitsIcESaIcEE12_M_constructIPcEEvT_S7_St20forward_iterator_tag.isra.33	#
.LVL305:
.LEHE17:
	movq	328(%rsp), %rcx	# MEM[(long unsigned int *)&D.95844 + 8B], D.96699
	movq	216(%rsp), %r15	# MEM[(long unsigned int *)&D.95701 + 8B], D.96699
.LBE4297:
.LBE4296:
.LBE4295:
.LBE4294:
.LBE4291:
.LBE4290:
	.loc 5 9 0
	movl	136(%rbx), %eax	# MEM[base: __first$_M_current_236, offset: 136B], D.96697
	movq	320(%rsp), %r14	# MEM[(char * *)&D.95844], D.96695
	cmpq	%r15, %rcx	# D.96699, D.96699
	movq	%r15, %rdx	# D.96699, __len
	cmovbe	%rcx, %rdx	# D.96699,, __len
	movl	%eax, 384(%rsp)	# D.96697, D.95844.qnty
.LVL306:
.LBE4302:
.LBE4304:
.LBB4305:
.LBB4306:
.LBB4307:
.LBB4308:
.LBB4309:
.LBB4310:
	.loc 4 260 0
	testq	%rdx, %rdx	# __len
	je	.L151	#,
	.loc 4 262 0
	movq	208(%rsp), %rsi	# MEM[(char * *)&D.95701],
	movq	%r14, %rdi	# D.96695,
	movq	%rcx, 8(%rsp)	# D.96699, %sfp
	call	memcmp	#
.LVL307:
.LBE4310:
.LBE4309:
	.loc 3 2319 0
	testl	%eax, %eax	# __r
.LBB4312:
.LBB4311:
	.loc 4 262 0
	movl	%eax, %r13d	#, __r
.LVL308:
.LBE4311:
.LBE4312:
	.loc 3 2319 0
	movq	8(%rsp), %rcx	# %sfp, D.96699
	je	.L151	#,
.LVL309:
.L155:
	movq	352(%rsp), %rdi	# MEM[(char * *)&D.95844 + 32B], D.96695
.LVL310:
.LBE4308:
.LBE4307:
.LBE4306:
.LBE4305:
.LBB4318:
.LBB4319:
.LBB4320:
.LBB4321:
.LBB4322:
	.loc 3 179 0
	leaq	368(%rsp), %rdx	#, tmp374
	cmpq	%rdx, %rdi	# tmp374, D.96695
	je	.L156	#,
.LVL311:
.LBB4323:
.LBB4324:
.LBB4325:
.LBB4326:
	.loc 10 110 0
	call	_ZdlPv	#
.LVL312:
	movq	320(%rsp), %r14	# MEM[(char * *)&D.95844], D.96695
.LVL313:
.L156:
.LBE4326:
.LBE4325:
.LBE4324:
.LBE4323:
.LBE4322:
.LBE4321:
.LBE4320:
.LBE4319:
.LBB4327:
.LBB4328:
.LBB4329:
	.loc 3 179 0
	cmpq	%rbp, %r14	# tmp571, D.96695
	je	.L157	#,
.LVL314:
.LBB4330:
.LBB4331:
.LBB4332:
.LBB4333:
	.loc 10 110 0
	movq	%r14, %rdi	# D.96695,
	call	_ZdlPv	#
.LVL315:
.L157:
.LBE4333:
.LBE4332:
.LBE4331:
.LBE4330:
.LBE4329:
.LBE4328:
.LBE4327:
.LBE4318:
.LBE4336:
.LBE4470:
	.loc 17 124 0
	testl	%r13d, %r13d	# __r
	je	.L317	#,
.LVL316:
.LBB4471:
.LBB4401:
.LBB4369:
.LBB4367:
.LBB4354:
.LBB4353:
.LBB4348:
.LBB4347:
	.loc 3 109 0
	movq	%r12, 400(%rsp)	# tmp573, MEM[(struct _Alloc_hider *)&D.95956]._M_p
.LVL317:
	movq	144(%rbx), %rsi	# MEM[base: __first$_M_current_236, offset: 144B], D.96695
.LVL318:
.LBE4347:
.LBE4348:
.LBB4349:
.LBB4350:
.LBB4351:
.LBB4352:
	.loc 3 195 0
	leaq	400(%rsp), %rdi	#, tmp626
.LVL319:
	movq	%rsi, %rdx	# D.96695, D.96695
	addq	152(%rbx), %rdx	# MEM[base: __first$_M_current_236, offset: 152B], D.96695
.LVL320:
.LEHB18:
	call	_ZNSt7__cxx1112basic_stringIcSt11char_traitsIcESaIcEE12_M_constructIPcEEvT_S7_St20forward_iterator_tag.isra.33	#
.LVL321:
.LEHE18:
.LBE4352:
.LBE4351:
.LBE4350:
.LBE4349:
.LBE4353:
.LBE4354:
.LBB4355:
.LBB4356:
.LBB4357:
.LBB4358:
	.loc 3 109 0
	leaq	448(%rsp), %rax	#, tmp383
.LVL322:
	movq	%rax, 432(%rsp)	# tmp383, MEM[(struct _Alloc_hider *)&D.95956 + 32B]._M_p
.LVL323:
	movq	176(%rbx), %rsi	# MEM[base: __first$_M_current_236, offset: 176B], D.96695
.LVL324:
.LBE4358:
.LBE4357:
.LBB4359:
.LBB4360:
.LBB4361:
.LBB4362:
	.loc 3 195 0
	leaq	400(%rsp), %rax	#, tmp629
.LVL325:
	leaq	32(%rax), %rdi	#, tmp387
	movq	%rsi, %rdx	# D.96695, D.96695
	addq	184(%rbx), %rdx	# MEM[base: __first$_M_current_236, offset: 184B], D.96695
.LVL326:
.LEHB19:
	call	_ZNSt7__cxx1112basic_stringIcSt11char_traitsIcESaIcEE12_M_constructIPcEEvT_S7_St20forward_iterator_tag.isra.33	#
.LVL327:
.LEHE19:
	movq	408(%rsp), %rcx	# MEM[(long unsigned int *)&D.95956 + 8B], D.96699
	movq	216(%rsp), %r15	# MEM[(long unsigned int *)&D.95701 + 8B], D.96699
.LBE4362:
.LBE4361:
.LBE4360:
.LBE4359:
.LBE4356:
.LBE4355:
	.loc 5 9 0
	movl	208(%rbx), %eax	# MEM[base: __first$_M_current_236, offset: 208B], D.96697
	movq	400(%rsp), %r14	# MEM[(char * *)&D.95956], D.96695
	cmpq	%r15, %rcx	# D.96699, D.96699
	movq	%r15, %rdx	# D.96699, __len
	cmovbe	%rcx, %rdx	# D.96699,, __len
	movl	%eax, 464(%rsp)	# D.96697, D.95956.qnty
.LVL328:
.LBE4367:
.LBE4369:
.LBB4370:
.LBB4371:
.LBB4372:
.LBB4373:
.LBB4374:
.LBB4375:
	.loc 4 260 0
	testq	%rdx, %rdx	# __len
	je	.L159	#,
	.loc 4 262 0
	movq	208(%rsp), %rsi	# MEM[(char * *)&D.95701],
	movq	%r14, %rdi	# D.96695,
	movq	%rcx, 8(%rsp)	# D.96699, %sfp
	call	memcmp	#
.LVL329:
.LBE4375:
.LBE4374:
	.loc 3 2319 0
	testl	%eax, %eax	# __r
.LBB4377:
.LBB4376:
	.loc 4 262 0
	movl	%eax, %r13d	#, __r
.LVL330:
.LBE4376:
.LBE4377:
	.loc 3 2319 0
	movq	8(%rsp), %rcx	# %sfp, D.96699
	je	.L159	#,
.LVL331:
.L163:
	movq	432(%rsp), %rdi	# MEM[(char * *)&D.95956 + 32B], D.96695
.LVL332:
.LBE4373:
.LBE4372:
.LBE4371:
.LBE4370:
.LBB4383:
.LBB4384:
.LBB4385:
.LBB4386:
.LBB4387:
	.loc 3 179 0
	leaq	448(%rsp), %rdx	#, tmp396
	cmpq	%rdx, %rdi	# tmp396, D.96695
	je	.L164	#,
.LVL333:
.LBB4388:
.LBB4389:
.LBB4390:
.LBB4391:
	.loc 10 110 0
	call	_ZdlPv	#
.LVL334:
	movq	400(%rsp), %r14	# MEM[(char * *)&D.95956], D.96695
.LVL335:
.L164:
.LBE4391:
.LBE4390:
.LBE4389:
.LBE4388:
.LBE4387:
.LBE4386:
.LBE4385:
.LBE4384:
.LBB4392:
.LBB4393:
.LBB4394:
	.loc 3 179 0
	cmpq	%r12, %r14	# tmp573, D.96695
	je	.L165	#,
.LVL336:
.LBB4395:
.LBB4396:
.LBB4397:
.LBB4398:
	.loc 10 110 0
	movq	%r14, %rdi	# D.96695,
	call	_ZdlPv	#
.LVL337:
.L165:
.LBE4398:
.LBE4397:
.LBE4396:
.LBE4395:
.LBE4394:
.LBE4393:
.LBE4392:
.LBE4383:
.LBE4401:
.LBE4471:
	.loc 17 128 0
	testl	%r13d, %r13d	# __r
	je	.L318	#,
.LVL338:
.LBB4472:
.LBB4473:
.LBB4474:
.LBB4475:
.LBB4476:
.LBB4477:
.LBB4478:
.LBB4479:
	.loc 3 109 0
	leaq	496(%rsp), %rax	#, tmp400
.LVL339:
.LBE4479:
.LBE4478:
.LBB4481:
.LBB4482:
.LBB4483:
.LBB4484:
	.loc 3 195 0
	leaq	480(%rsp), %rdi	#, tmp637
.LVL340:
.LBE4484:
.LBE4483:
.LBE4482:
.LBE4481:
.LBB4488:
.LBB4480:
	.loc 3 109 0
	movq	%rax, 480(%rsp)	# tmp400, MEM[(struct _Alloc_hider *)&D.96068]._M_p
.LVL341:
	movq	216(%rbx), %rsi	# MEM[base: __first$_M_current_236, offset: 216B], D.96695
.LVL342:
.LBE4480:
.LBE4488:
.LBB4489:
.LBB4487:
.LBB4486:
.LBB4485:
	.loc 3 195 0
	movq	%rsi, %rdx	# D.96695, D.96695
	addq	224(%rbx), %rdx	# MEM[base: __first$_M_current_236, offset: 224B], D.96695
.LVL343:
.LEHB20:
	call	_ZNSt7__cxx1112basic_stringIcSt11char_traitsIcESaIcEE12_M_constructIPcEEvT_S7_St20forward_iterator_tag.isra.33	#
.LVL344:
.LEHE20:
.LBE4485:
.LBE4486:
.LBE4487:
.LBE4489:
.LBE4477:
.LBE4476:
.LBB4490:
.LBB4491:
.LBB4492:
.LBB4493:
	.loc 3 109 0
	leaq	528(%rsp), %rax	#, tmp405
.LVL345:
	movq	%rax, 512(%rsp)	# tmp405, MEM[(struct _Alloc_hider *)&D.96068 + 32B]._M_p
.LVL346:
	movq	248(%rbx), %rsi	# MEM[base: __first$_M_current_236, offset: 248B], D.96695
.LVL347:
.LBE4493:
.LBE4492:
.LBB4494:
.LBB4495:
.LBB4496:
.LBB4497:
	.loc 3 195 0
	leaq	480(%rsp), %rax	#, tmp640
.LVL348:
	leaq	32(%rax), %rdi	#, tmp409
	movq	%rsi, %rdx	# D.96695, D.96695
	addq	256(%rbx), %rdx	# MEM[base: __first$_M_current_236, offset: 256B], D.96695
.LVL349:
.LEHB21:
	call	_ZNSt7__cxx1112basic_stringIcSt11char_traitsIcESaIcEE12_M_constructIPcEEvT_S7_St20forward_iterator_tag.isra.33	#
.LVL350:
.LEHE21:
	movq	488(%rsp), %rcx	# MEM[(long unsigned int *)&D.96068 + 8B], D.96699
	movq	216(%rsp), %r13	# MEM[(long unsigned int *)&D.95701 + 8B], D.96699
.LBE4497:
.LBE4496:
.LBE4495:
.LBE4494:
.LBE4491:
.LBE4490:
	.loc 5 9 0
	movl	280(%rbx), %eax	# MEM[base: __first$_M_current_236, offset: 280B], D.96697
	movq	480(%rsp), %r14	# MEM[(char * *)&D.96068], D.96695
	cmpq	%r13, %rcx	# D.96699, D.96699
	movq	%r13, %rdx	# D.96699, __len
	cmovbe	%rcx, %rdx	# D.96699,, __len
	movl	%eax, 544(%rsp)	# D.96697, D.96068.qnty
.LVL351:
.LBE4475:
.LBE4474:
.LBB4503:
.LBB4504:
.LBB4505:
.LBB4506:
.LBB4507:
.LBB4508:
	.loc 4 260 0
	testq	%rdx, %rdx	# __len
	je	.L167	#,
	.loc 4 262 0
	movq	208(%rsp), %rsi	# MEM[(char * *)&D.95701],
	movq	%r14, %rdi	# D.96695,
	movq	%rcx, 8(%rsp)	# D.96699, %sfp
	call	memcmp	#
.LVL352:
.LBE4508:
.LBE4507:
	.loc 3 2319 0
	testl	%eax, %eax	# __r
.LBB4510:
.LBB4509:
	.loc 4 262 0
	movl	%eax, %r15d	#, __r
.LVL353:
.LBE4509:
.LBE4510:
	.loc 3 2319 0
	movq	8(%rsp), %rcx	# %sfp, D.96699
	je	.L167	#,
.LVL354:
.L171:
	movq	512(%rsp), %rdi	# MEM[(char * *)&D.96068 + 32B], D.96695
.LVL355:
.LBE4506:
.LBE4505:
.LBE4504:
.LBE4503:
.LBB4516:
.LBB4517:
.LBB4518:
.LBB4519:
.LBB4520:
	.loc 3 179 0
	leaq	528(%rsp), %rdx	#, tmp418
	cmpq	%rdx, %rdi	# tmp418, D.96695
	je	.L172	#,
.LVL356:
.LBB4521:
.LBB4522:
.LBB4523:
.LBB4524:
	.loc 10 110 0
	call	_ZdlPv	#
.LVL357:
	movq	480(%rsp), %r14	# MEM[(char * *)&D.96068], D.96695
.LVL358:
.L172:
.LBE4524:
.LBE4523:
.LBE4522:
.LBE4521:
.LBE4520:
.LBE4519:
.LBE4518:
.LBE4517:
.LBB4525:
.LBB4526:
.LBB4527:
	.loc 3 179 0
	leaq	496(%rsp), %rdx	#, tmp420
	cmpq	%rdx, %r14	# tmp420, D.96695
	je	.L173	#,
.LVL359:
.LBB4528:
.LBB4529:
.LBB4530:
.LBB4531:
	.loc 10 110 0
	movq	%r14, %rdi	# D.96695,
	call	_ZdlPv	#
.LVL360:
.L173:
.LBE4531:
.LBE4530:
.LBE4529:
.LBE4528:
.LBE4527:
.LBE4526:
.LBE4525:
.LBE4516:
.LBE4473:
.LBE4472:
	.loc 17 132 0
	testl	%r15d, %r15d	# __r
	je	.L319	#,
.LVL361:
	addq	$288, %rbx	#, __first$_M_current
.LVL362:
	.loc 17 118 0
	cmpq	(%rsp), %rbx	# %sfp, __first$_M_current
	je	.L320	#,
.LVL363:
.L175:
.LBB4536:
.LBB4468:
.LBB4437:
.LBB4438:
.LBB4439:
.LBB4440:
.LBB4441:
.LBB4442:
	.loc 3 109 0
	leaq	256(%rsp), %rax	#, tmp332
.LVL364:
.LBE4442:
.LBE4441:
.LBB4444:
.LBB4445:
.LBB4446:
.LBB4447:
	.loc 3 195 0
	leaq	240(%rsp), %rdi	#, tmp606
.LVL365:
.LBE4447:
.LBE4446:
.LBE4445:
.LBE4444:
.LBB4451:
.LBB4443:
	.loc 3 109 0
	movq	%rax, 240(%rsp)	# tmp332, MEM[(struct _Alloc_hider *)&D.95732]._M_p
.LVL366:
	movq	(%rbx), %rsi	# MEM[base: __first$_M_current_236, offset: 0B], D.96695
.LVL367:
.LBE4443:
.LBE4451:
.LBB4452:
.LBB4450:
.LBB4449:
.LBB4448:
	.loc 3 195 0
	movq	%rsi, %rdx	# D.96695, D.96695
	addq	8(%rbx), %rdx	# MEM[base: __first$_M_current_236, offset: 8B], D.96695
.LVL368:
.LEHB22:
	call	_ZNSt7__cxx1112basic_stringIcSt11char_traitsIcESaIcEE12_M_constructIPcEEvT_S7_St20forward_iterator_tag.isra.33	#
.LVL369:
.LEHE22:
.LBE4448:
.LBE4449:
.LBE4450:
.LBE4452:
.LBE4440:
.LBE4439:
.LBB4453:
.LBB4454:
.LBB4455:
.LBB4456:
	.loc 3 109 0
	leaq	288(%rsp), %rax	#, tmp337
.LVL370:
	movq	%rax, 272(%rsp)	# tmp337, MEM[(struct _Alloc_hider *)&D.95732 + 32B]._M_p
.LVL371:
	movq	32(%rbx), %rsi	# MEM[base: __first$_M_current_236, offset: 32B], D.96695
.LVL372:
.LBE4456:
.LBE4455:
.LBB4457:
.LBB4458:
.LBB4459:
.LBB4460:
	.loc 3 195 0
	leaq	240(%rsp), %rax	#, tmp609
.LVL373:
	leaq	32(%rax), %rdi	#, tmp341
	movq	%rsi, %rdx	# D.96695, D.96695
	addq	40(%rbx), %rdx	# MEM[base: __first$_M_current_236, offset: 40B], D.96695
.LVL374:
.LEHB23:
	call	_ZNSt7__cxx1112basic_stringIcSt11char_traitsIcESaIcEE12_M_constructIPcEEvT_S7_St20forward_iterator_tag.isra.33	#
.LVL375:
.LEHE23:
	movq	248(%rsp), %rcx	# MEM[(long unsigned int *)&D.95732 + 8B], D.96699
	movq	216(%rsp), %r15	# MEM[(long unsigned int *)&D.95701 + 8B], D.96699
.LBE4460:
.LBE4459:
.LBE4458:
.LBE4457:
.LBE4454:
.LBE4453:
	.loc 5 9 0
	movl	64(%rbx), %eax	# MEM[base: __first$_M_current_236, offset: 64B], D.96697
	movq	240(%rsp), %r14	# MEM[(char * *)&D.95732], D.96695
	cmpq	%r15, %rcx	# D.96699, D.96699
	movq	%r15, %rdx	# D.96699, __len
	cmovbe	%rcx, %rdx	# D.96699,, __len
	movl	%eax, 304(%rsp)	# D.96697, D.95732.qnty
.LVL376:
.LBE4438:
.LBE4437:
.LBB4466:
.LBB4420:
.LBB4419:
.LBB4418:
.LBB4415:
.LBB4413:
	.loc 4 260 0
	testq	%rdx, %rdx	# __len
	jne	.L321	#,
.LVL377:
.L142:
.LBE4413:
.LBE4415:
.LBB4416:
.LBB4417:
	.loc 3 351 0
	subq	%r15, %rcx	# D.96699, D.96699
.LVL378:
	.loc 3 354 0
	movl	$2147483647, %r13d	#, __r
	.loc 3 353 0
	cmpq	$2147483647, %rcx	#, D.96699
	jg	.L147	#,
	.loc 3 358 0
	cmpq	$-2147483648, %rcx	#, D.96699
	movl	$-2147483648, %eax	#, tmp563
	cmovge	%ecx, %eax	# D.96699,, __r
	movl	%eax, %r13d	# __r, __r
	jmp	.L147	#
.LVL379:
	.p2align 4,,10
	.p2align 3
.L151:
.LBE4417:
.LBE4416:
.LBE4418:
.LBE4419:
.LBE4420:
.LBE4466:
.LBE4468:
.LBE4536:
.LBB4537:
.LBB4337:
.LBB4334:
.LBB4317:
.LBB4316:
.LBB4315:
.LBB4313:
.LBB4314:
	.loc 3 351 0
	subq	%r15, %rcx	# D.96699, D.96699
.LVL380:
	.loc 3 354 0
	movl	$2147483647, %r13d	#, __r
	.loc 3 353 0
	cmpq	$2147483647, %rcx	#, D.96699
	jg	.L155	#,
	.loc 3 358 0
	cmpq	$-2147483648, %rcx	#, D.96699
	movl	$-2147483648, %eax	#, tmp564
	cmovge	%ecx, %eax	# D.96699,, __r
	movl	%eax, %r13d	# __r, __r
	jmp	.L155	#
.LVL381:
	.p2align 4,,10
	.p2align 3
.L159:
.LBE4314:
.LBE4313:
.LBE4315:
.LBE4316:
.LBE4317:
.LBE4334:
.LBE4337:
.LBE4537:
.LBB4538:
.LBB4402:
.LBB4399:
.LBB4382:
.LBB4381:
.LBB4380:
.LBB4378:
.LBB4379:
	.loc 3 351 0
	subq	%r15, %rcx	# D.96699, D.96699
.LVL382:
	.loc 3 354 0
	movl	$2147483647, %r13d	#, __r
	.loc 3 353 0
	cmpq	$2147483647, %rcx	#, D.96699
	jg	.L163	#,
	.loc 3 358 0
	cmpq	$-2147483648, %rcx	#, D.96699
	movl	$-2147483648, %eax	#, tmp565
	cmovge	%ecx, %eax	# D.96699,, __r
	movl	%eax, %r13d	# __r, __r
	jmp	.L163	#
.LVL383:
	.p2align 4,,10
	.p2align 3
.L167:
.LBE4379:
.LBE4378:
.LBE4380:
.LBE4381:
.LBE4382:
.LBE4399:
.LBE4402:
.LBE4538:
.LBB4539:
.LBB4534:
.LBB4532:
.LBB4515:
.LBB4514:
.LBB4513:
.LBB4511:
.LBB4512:
	.loc 3 351 0
	subq	%r13, %rcx	# D.96699, D.96699
.LVL384:
	.loc 3 354 0
	movl	$2147483647, %r15d	#, __r
	.loc 3 353 0
	cmpq	$2147483647, %rcx	#, D.96699
	jg	.L171	#,
	.loc 3 358 0
	cmpq	$-2147483648, %rcx	#, D.96699
	movl	$-2147483648, %eax	#, tmp566
	cmovge	%ecx, %eax	# D.96699,, __r
	movl	%eax, %r15d	# __r, __r
	jmp	.L171	#
.LVL385:
	.p2align 4,,10
	.p2align 3
.L134:
.LBE4512:
.LBE4511:
.LBE4513:
.LBE4514:
.LBE4515:
.LBE4532:
.LBE4534:
.LBE4539:
.LBE4271:
.LBE4270:
.LBE4253:
.LBE4252:
.LBE4856:
.LBE4870:
.LBB4871:
.LBB4160:
.LBB4158:
.LBB4156:
.LBB4154:
.LBB4153:
.LBB4151:
.LBB4152:
	.loc 1 876 0
	movq	%rbx, %rdi	# D.96694,
.LEHB24:
	call	_ZNKSt5ctypeIcE13_M_widen_initEv	#
.LVL386:
	.loc 1 877 0
	movq	(%rbx), %rax	# MEM[(const struct ctype *)_9].D.28244._vptr.facet, MEM[(const struct ctype *)_9].D.28244._vptr.facet
	movl	$10, %edx	#, D.96697
	movq	48(%rax), %rax	# MEM[(int (*__vtbl_ptr_type) () *)_88 + 48B], D.96704
	cmpq	$_ZNKSt5ctypeIcE8do_widenEc, %rax	#, D.96704
	je	.L135	#,
	movl	$10, %esi	#,
	movq	%rbx, %rdi	# D.96694,
	call	*%rax	# D.96704
.LVL387:
.LEHE24:
	movsbl	%al, %edx	# D.96703, D.96697
	jmp	.L135	#
.LVL388:
	.p2align 4,,10
	.p2align 3
.L242:
.LBE4152:
.LBE4151:
.LBE4153:
.LBE4154:
.LBE4156:
.LBE4158:
.LBE4160:
.LBE4871:
.LBB4872:
.LBB4857:
.LBB4812:
.LBB4804:
.LBB4778:
.LBB4770:
	.loc 17 144 0
	movq	%rbx, 16(%rsp)	# __first$_M_current, %sfp
.LVL389:
.L150:
	movq	208(%rsp), %rdi	# MEM[(char * *)&D.95701], D.96695
.LVL390:
.LBE4770:
.LBE4778:
.LBB4779:
.LBB4780:
.LBB4781:
.LBB4782:
.LBB4783:
	.loc 3 179 0
	leaq	224(%rsp), %rax	#, tmp492
	cmpq	%rax, %rdi	# tmp492, D.96695
	je	.L201	#,
.LVL391:
.LBB4784:
.LBB4785:
.LBB4786:
.LBB4787:
	.loc 10 110 0
	call	_ZdlPv	#
.LVL392:
.L201:
	movq	144(%rsp), %rdi	# MEM[(char * *)&D.95552], D.96695
.LVL393:
.LBE4787:
.LBE4786:
.LBE4785:
.LBE4784:
.LBE4783:
.LBE4782:
.LBE4781:
.LBE4780:
.LBE4779:
.LBE4804:
.LBE4812:
.LBB4813:
.LBB4814:
.LBB4815:
.LBB4816:
.LBB4817:
	.loc 3 179 0
	leaq	160(%rsp), %rax	#, tmp494
	cmpq	%rax, %rdi	# tmp494, D.96695
	je	.L203	#,
.LVL394:
.LBB4818:
.LBB4819:
.LBB4820:
.LBB4821:
	.loc 10 110 0
	call	_ZdlPv	#
.LVL395:
.L203:
	movq	112(%rsp), %rdi	# MEM[(char * *)&D.95551], D.96695
.LVL396:
.LBE4821:
.LBE4820:
.LBE4819:
.LBE4818:
.LBE4817:
.LBE4816:
.LBE4815:
.LBE4814:
.LBE4813:
.LBB4822:
.LBB4823:
.LBB4824:
.LBB4825:
	.loc 3 179 0
	leaq	128(%rsp), %rax	#, tmp500
	cmpq	%rax, %rdi	# tmp500, D.96695
	je	.L206	#,
.LVL397:
.LBB4826:
.LBB4827:
.LBB4828:
.LBB4829:
	.loc 10 110 0
	call	_ZdlPv	#
.LVL398:
.L206:
	movq	80(%rsp), %rdi	# MEM[(char * *)&D.86226], D.96695
.LVL399:
.LBE4829:
.LBE4828:
.LBE4827:
.LBE4826:
.LBE4825:
.LBE4824:
.LBE4823:
.LBE4822:
.LBE4857:
.LBE4872:
.LBB4873:
.LBB4874:
.LBB4875:
.LBB4876:
	.loc 3 179 0
	leaq	96(%rsp), %rax	#, tmp502
	cmpq	%rax, %rdi	# tmp502, D.96695
	je	.L208	#,
.LVL400:
.LBB4877:
.LBB4878:
.LBB4879:
.LBB4880:
	.loc 10 110 0
	call	_ZdlPv	#
.LVL401:
.L208:
.LBE4880:
.LBE4879:
.LBE4878:
.LBE4877:
.LBE4876:
.LBE4875:
.LBE4874:
.LBE4873:
.LBB4881:
	.loc 5 32 0
	movq	16(%rsp), %rax	# %sfp, D.96700
	cmpq	%rax, entry+8(%rip)	# D.96700, MEM[(struct info * const &)&entry + 8]
	je	.L322	#,
	.loc 5 41 0
	movl	44(%rsp), %eax	# temp_qnty, temp_qnty
	movq	16(%rsp), %rbx	# %sfp, D.96700
	movl	%eax, 64(%rbx)	# temp_qnty, SR.382_666->qnty
.LVL402:
.L221:
	movq	48(%rsp), %rdi	# MEM[(char * *)&temp_notes], D.96695
.LVL403:
.LBE4881:
.LBB4985:
.LBB4986:
.LBB4987:
	.loc 3 179 0
	leaq	64(%rsp), %rax	#, tmp542
	cmpq	%rax, %rdi	# tmp542, D.96695
	je	.L132	#,
.LVL404:
.LBB4988:
.LBB4989:
.LBB4990:
.LBB4991:
	.loc 10 110 0
	call	_ZdlPv	#
.LVL405:
.L132:
.LBE4991:
.LBE4990:
.LBE4989:
.LBE4988:
.LBE4987:
.LBE4986:
.LBE4985:
	.loc 5 43 0
	movq	792(%rsp), %rax	# D.96708, tmp575
	xorq	%fs:40, %rax	#, tmp575
	jne	.L323	#,
	addq	$808, %rsp	#,
	.cfi_remember_state
	.cfi_def_cfa_offset 56
	popq	%rbx	#
	.cfi_def_cfa_offset 48
	popq	%rbp	#
	.cfi_def_cfa_offset 40
	popq	%r12	#
	.cfi_def_cfa_offset 32
	popq	%r13	#
	.cfi_def_cfa_offset 24
	popq	%r14	#
	.cfi_def_cfa_offset 16
	popq	%r15	#
	.cfi_def_cfa_offset 8
	ret
.LVL406:
	.p2align 4,,10
	.p2align 3
.L320:
	.cfi_restore_state
	movq	16(%rsp), %rax	# %sfp, D.96696
	movabsq	$-8198552921648689607, %rdx	#, tmp424
	subq	%rbx, %rax	# __first$_M_current, D.96696
	sarq	$3, %rax	#, tmp422
	imulq	%rdx, %rax	# tmp424, D.96696
.LVL407:
.L141:
.LBB4992:
.LBB4858:
.LBB4830:
.LBB4805:
.LBB4788:
.LBB4771:
	.loc 17 137 0
	cmpq	$2, %rax	#, D.96696
	je	.L177	#,
	cmpq	$3, %rax	#, D.96696
	je	.L178	#,
	cmpq	$1, %rax	#, D.96696
	jne	.L150	#,
.L179:
.LVL408:
.LBB4540:
.LBB4541:
.LBB4542:
.LBB4543:
.LBB4544:
.LBB4545:
.LBB4546:
.LBB4547:
	.loc 3 109 0
	leaq	720(%rsp), %rbp	#, tmp560
.LVL409:
	leaq	16(%rbp), %rax	#, tmp470
.LBE4547:
.LBE4546:
.LBB4549:
.LBB4550:
.LBB4551:
.LBB4552:
	.loc 3 195 0
	movq	%rbp, %rdi	# tmp560,
.LBE4552:
.LBE4551:
.LBE4550:
.LBE4549:
.LBB4556:
.LBB4548:
	.loc 3 109 0
	movq	%rax, 720(%rsp)	# tmp470, MEM[(struct _Alloc_hider *)&D.96404]._M_p
.LVL410:
	movq	(%rbx), %rsi	# MEM[(char * *)__first$_M_current_145], D.96695
.LVL411:
.LBE4548:
.LBE4556:
.LBB4557:
.LBB4555:
.LBB4554:
.LBB4553:
	.loc 3 195 0
	movq	%rsi, %rdx	# D.96695, D.96695
	addq	8(%rbx), %rdx	# MEM[(long unsigned int *)__first$_M_current_145 + 8B], D.96695
.LVL412:
.LEHB25:
	call	_ZNSt7__cxx1112basic_stringIcSt11char_traitsIcESaIcEE12_M_constructIPcEEvT_S7_St20forward_iterator_tag.isra.33	#
.LVL413:
.LEHE25:
.LBE4553:
.LBE4554:
.LBE4555:
.LBE4557:
.LBE4545:
.LBE4544:
.LBB4558:
.LBB4559:
.LBB4560:
.LBB4561:
	.loc 3 109 0
	leaq	48(%rbp), %rax	#, tmp475
.LBE4561:
.LBE4560:
.LBB4563:
.LBB4564:
.LBB4565:
.LBB4566:
	.loc 3 195 0
	leaq	32(%rbp), %rdi	#, tmp479
.LBE4566:
.LBE4565:
.LBE4564:
.LBE4563:
.LBB4570:
.LBB4562:
	.loc 3 109 0
	movq	%rax, 752(%rsp)	# tmp475, MEM[(struct _Alloc_hider *)&D.96404 + 32B]._M_p
.LVL414:
	movq	32(%rbx), %rsi	# MEM[(char * *)__first$_M_current_145 + 32B], D.96695
.LVL415:
.LBE4562:
.LBE4570:
.LBB4571:
.LBB4569:
.LBB4568:
.LBB4567:
	.loc 3 195 0
	movq	%rsi, %rdx	# D.96695, D.96695
	addq	40(%rbx), %rdx	# MEM[(long unsigned int *)__first$_M_current_145 + 40B], D.96695
.LVL416:
.LEHB26:
	call	_ZNSt7__cxx1112basic_stringIcSt11char_traitsIcESaIcEE12_M_constructIPcEEvT_S7_St20forward_iterator_tag.isra.33	#
.LVL417:
.LEHE26:
	movq	728(%rsp), %r12	# MEM[(long unsigned int *)&D.96404 + 8B], D.96699
	movq	216(%rsp), %rcx	# MEM[(long unsigned int *)&D.95701 + 8B], D.96699
.LBE4567:
.LBE4568:
.LBE4569:
.LBE4571:
.LBE4559:
.LBE4558:
	.loc 5 9 0
	movl	64(%rbx), %eax	# MEM[(const struct info &)__first$_M_current_145].qnty, D.96697
	movq	720(%rsp), %r13	# MEM[(char * *)&D.96404], D.96695
	cmpq	%rcx, %r12	# D.96699, D.96699
	movq	%rcx, %rdx	# D.96699, __len
	cmovbe	%r12, %rdx	# D.96699,, __len
	movl	%eax, 784(%rsp)	# D.96697, D.96404.qnty
.LVL418:
.LBE4543:
.LBE4542:
.LBB4586:
.LBB4587:
.LBB4588:
.LBB4589:
.LBB4590:
.LBB4591:
	.loc 4 260 0
	testq	%rdx, %rdx	# __len
	je	.L194	#,
	.loc 4 262 0
	movq	208(%rsp), %rsi	# MEM[(char * *)&D.95701],
	movq	%r13, %rdi	# D.96695,
	movq	%rcx, (%rsp)	# D.96699, %sfp
	call	memcmp	#
.LVL419:
.LBE4591:
.LBE4590:
	.loc 3 2319 0
	testl	%eax, %eax	# __r
	movq	(%rsp), %rcx	# %sfp, D.96699
	je	.L194	#,
.LVL420:
.L198:
	movq	752(%rsp), %rdi	# MEM[(char * *)&D.96404 + 32B], D.96695
.LVL421:
.LBE4589:
.LBE4588:
.LBE4587:
.LBE4586:
.LBB4597:
.LBB4598:
.LBB4599:
.LBB4600:
.LBB4601:
	.loc 3 179 0
	leaq	48(%rbp), %rdx	#, tmp488
	cmpq	%rdx, %rdi	# tmp488, D.96695
	je	.L199	#,
	movl	%eax, (%rsp)	# __r, %sfp
.LVL422:
.LBB4602:
.LBB4603:
.LBB4604:
.LBB4605:
	.loc 10 110 0
	call	_ZdlPv	#
.LVL423:
	movq	720(%rsp), %r13	# MEM[(char * *)&D.96404], D.96695
	movl	(%rsp), %eax	# %sfp, __r
.LVL424:
.L199:
.LBE4605:
.LBE4604:
.LBE4603:
.LBE4602:
.LBE4601:
.LBE4600:
.LBE4599:
.LBE4598:
.LBB4606:
.LBB4607:
.LBB4608:
	.loc 3 179 0
	addq	$16, %rbp	#, tmp490
.LVL425:
	cmpq	%rbp, %r13	# tmp490, D.96695
	je	.L200	#,
.LBB4609:
.LBB4610:
.LBB4611:
.LBB4612:
	.loc 10 110 0
	movq	%r13, %rdi	# D.96695,
	movl	%eax, (%rsp)	# __r, %sfp
.LVL426:
	call	_ZdlPv	#
.LVL427:
	movl	(%rsp), %eax	# %sfp, __r
.LVL428:
.L200:
.LBE4612:
.LBE4611:
.LBE4610:
.LBE4609:
.LBE4608:
.LBE4607:
.LBE4606:
.LBE4597:
.LBE4541:
.LBE4540:
	.loc 17 148 0
	testl	%eax, %eax	# __r
	cmovne	16(%rsp), %rbx	# %sfp,, D.96700
.LVL429:
	movq	%rbx, 16(%rsp)	# D.96700, %sfp
.LVL430:
	jmp	.L150	#
.LVL431:
	.p2align 4,,10
	.p2align 3
.L317:
.LBB4619:
.LBB4620:
	.loc 16 763 0
	leaq	72(%rbx), %rax	#, D.96700
	movq	%rax, 16(%rsp)	# D.96700, %sfp
.LVL432:
	jmp	.L150	#
.LVL433:
.L178:
.LBE4620:
.LBE4619:
.LBB4621:
.LBB4622:
.LBB4623:
.LBB4624:
.LBB4625:
.LBB4626:
.LBB4627:
.LBB4628:
	.loc 3 109 0
	leaq	576(%rsp), %rax	#, tmp426
.LVL434:
.LBE4628:
.LBE4627:
.LBB4630:
.LBB4631:
.LBB4632:
.LBB4633:
	.loc 3 195 0
	leaq	560(%rsp), %rdi	#, tmp651
.LVL435:
.LBE4633:
.LBE4632:
.LBE4631:
.LBE4630:
.LBB4637:
.LBB4629:
	.loc 3 109 0
	movq	%rax, 560(%rsp)	# tmp426, MEM[(struct _Alloc_hider *)&D.96180]._M_p
.LVL436:
	movq	(%rbx), %rsi	# MEM[(char * *)__first$_M_current_203], D.96695
.LVL437:
.LBE4629:
.LBE4637:
.LBB4638:
.LBB4636:
.LBB4635:
.LBB4634:
	.loc 3 195 0
	movq	%rsi, %rdx	# D.96695, D.96695
	addq	8(%rbx), %rdx	# MEM[(long unsigned int *)__first$_M_current_203 + 8B], D.96695
.LVL438:
.LEHB27:
	call	_ZNSt7__cxx1112basic_stringIcSt11char_traitsIcESaIcEE12_M_constructIPcEEvT_S7_St20forward_iterator_tag.isra.33	#
.LVL439:
.LEHE27:
.LBE4634:
.LBE4635:
.LBE4636:
.LBE4638:
.LBE4626:
.LBE4625:
.LBB4639:
.LBB4640:
.LBB4641:
.LBB4642:
	.loc 3 109 0
	leaq	608(%rsp), %rax	#, tmp431
.LVL440:
	movq	%rax, 592(%rsp)	# tmp431, MEM[(struct _Alloc_hider *)&D.96180 + 32B]._M_p
.LVL441:
	movq	32(%rbx), %rsi	# MEM[(char * *)__first$_M_current_203 + 32B], D.96695
.LVL442:
.LBE4642:
.LBE4641:
.LBB4643:
.LBB4644:
.LBB4645:
.LBB4646:
	.loc 3 195 0
	leaq	560(%rsp), %rax	#, tmp654
.LVL443:
	leaq	32(%rax), %rdi	#, tmp435
	movq	%rsi, %rdx	# D.96695, D.96695
	addq	40(%rbx), %rdx	# MEM[(long unsigned int *)__first$_M_current_203 + 40B], D.96695
.LVL444:
.LEHB28:
	call	_ZNSt7__cxx1112basic_stringIcSt11char_traitsIcESaIcEE12_M_constructIPcEEvT_S7_St20forward_iterator_tag.isra.33	#
.LVL445:
.LEHE28:
	movq	568(%rsp), %rbp	# MEM[(long unsigned int *)&D.96180 + 8B], D.96699
	movq	216(%rsp), %r13	# MEM[(long unsigned int *)&D.95701 + 8B], D.96699
.LBE4646:
.LBE4645:
.LBE4644:
.LBE4643:
.LBE4640:
.LBE4639:
	.loc 5 9 0
	movl	64(%rbx), %eax	# MEM[(const struct info &)__first$_M_current_203].qnty, D.96697
	movq	560(%rsp), %r12	# MEM[(char * *)&D.96180], D.96695
	cmpq	%r13, %rbp	# D.96699, D.96699
	movq	%r13, %rdx	# D.96699, __len
	cmovbe	%rbp, %rdx	# D.96699,, __len
	movl	%eax, 624(%rsp)	# D.96697, D.96180.qnty
.LVL446:
.LBE4624:
.LBE4623:
.LBB4652:
.LBB4653:
.LBB4654:
.LBB4655:
.LBB4656:
.LBB4657:
	.loc 4 260 0
	testq	%rdx, %rdx	# __len
	jne	.L324	#,
.LVL447:
.L180:
.LBE4657:
.LBE4656:
.LBB4659:
.LBB4660:
	.loc 3 351 0
	subq	%r13, %rbp	# D.96699, D.96699
.LVL448:
	.loc 3 354 0
	movl	$2147483647, %eax	#, __r
	.loc 3 353 0
	cmpq	$2147483647, %rbp	#, D.96699
	jg	.L184	#,
	.loc 3 358 0
	cmpq	$-2147483648, %rbp	#, D.96699
	movl	$-2147483648, %eax	#, tmp567
	cmovge	%ebp, %eax	# D.96699,, __r
.LVL449:
.L184:
	movq	592(%rsp), %rdi	# MEM[(char * *)&D.96180 + 32B], D.96695
.LVL450:
.LBE4660:
.LBE4659:
.LBE4655:
.LBE4654:
.LBE4653:
.LBE4652:
.LBB4665:
.LBB4666:
.LBB4667:
.LBB4668:
.LBB4669:
	.loc 3 179 0
	leaq	608(%rsp), %rdx	#, tmp444
	cmpq	%rdx, %rdi	# tmp444, D.96695
	je	.L185	#,
	movl	%eax, (%rsp)	# __r, %sfp
.LVL451:
.LBB4670:
.LBB4671:
.LBB4672:
.LBB4673:
	.loc 10 110 0
	call	_ZdlPv	#
.LVL452:
	movq	560(%rsp), %r12	# MEM[(char * *)&D.96180], D.96695
	movl	(%rsp), %eax	# %sfp, __r
.LVL453:
.L185:
.LBE4673:
.LBE4672:
.LBE4671:
.LBE4670:
.LBE4669:
.LBE4668:
.LBE4667:
.LBE4666:
.LBB4674:
.LBB4675:
.LBB4676:
	.loc 3 179 0
	leaq	576(%rsp), %rdx	#, tmp446
	cmpq	%rdx, %r12	# tmp446, D.96695
	je	.L186	#,
.LBB4677:
.LBB4678:
.LBB4679:
.LBB4680:
	.loc 10 110 0
	movq	%r12, %rdi	# D.96695,
	movl	%eax, (%rsp)	# __r, %sfp
.LVL454:
	call	_ZdlPv	#
.LVL455:
	movl	(%rsp), %eax	# %sfp, __r
.LVL456:
.L186:
.LBE4680:
.LBE4679:
.LBE4678:
.LBE4677:
.LBE4676:
.LBE4675:
.LBE4674:
.LBE4665:
.LBE4622:
.LBE4621:
	.loc 17 140 0
	testl	%eax, %eax	# __r
	je	.L242	#,
.LVL457:
.LBB4685:
.LBB4686:
	.loc 16 763 0
	addq	$72, %rbx	#, __first$_M_current
.LVL458:
.L177:
.LBE4686:
.LBE4685:
.LBB4687:
.LBB4688:
.LBB4689:
.LBB4690:
.LBB4691:
.LBB4692:
.LBB4693:
.LBB4694:
	.loc 3 109 0
	leaq	656(%rsp), %rax	#, tmp448
.LVL459:
.LBE4694:
.LBE4693:
.LBB4696:
.LBB4697:
.LBB4698:
.LBB4699:
	.loc 3 195 0
	leaq	640(%rsp), %rdi	#, tmp661
.LVL460:
.LBE4699:
.LBE4698:
.LBE4697:
.LBE4696:
.LBB4703:
.LBB4695:
	.loc 3 109 0
	movq	%rax, 640(%rsp)	# tmp448, MEM[(struct _Alloc_hider *)&D.96292]._M_p
.LVL461:
	movq	(%rbx), %rsi	# MEM[(char * *)__first$_M_current_142], D.96695
.LVL462:
.LBE4695:
.LBE4703:
.LBB4704:
.LBB4702:
.LBB4701:
.LBB4700:
	.loc 3 195 0
	movq	%rsi, %rdx	# D.96695, D.96695
	addq	8(%rbx), %rdx	# MEM[(long unsigned int *)__first$_M_current_142 + 8B], D.96695
.LVL463:
.LEHB29:
	call	_ZNSt7__cxx1112basic_stringIcSt11char_traitsIcESaIcEE12_M_constructIPcEEvT_S7_St20forward_iterator_tag.isra.33	#
.LVL464:
.LEHE29:
.LBE4700:
.LBE4701:
.LBE4702:
.LBE4704:
.LBE4692:
.LBE4691:
.LBB4705:
.LBB4706:
.LBB4707:
.LBB4708:
	.loc 3 109 0
	leaq	688(%rsp), %rax	#, tmp453
.LVL465:
	movq	%rax, 672(%rsp)	# tmp453, MEM[(struct _Alloc_hider *)&D.96292 + 32B]._M_p
.LVL466:
	movq	32(%rbx), %rsi	# MEM[(char * *)__first$_M_current_142 + 32B], D.96695
.LVL467:
.LBE4708:
.LBE4707:
.LBB4709:
.LBB4710:
.LBB4711:
.LBB4712:
	.loc 3 195 0
	leaq	640(%rsp), %rax	#, tmp664
.LVL468:
	leaq	32(%rax), %rdi	#, tmp457
	movq	%rsi, %rdx	# D.96695, D.96695
	addq	40(%rbx), %rdx	# MEM[(long unsigned int *)__first$_M_current_142 + 40B], D.96695
.LVL469:
.LEHB30:
	call	_ZNSt7__cxx1112basic_stringIcSt11char_traitsIcESaIcEE12_M_constructIPcEEvT_S7_St20forward_iterator_tag.isra.33	#
.LVL470:
.LEHE30:
	movq	648(%rsp), %rbp	# MEM[(long unsigned int *)&D.96292 + 8B], D.96699
	movq	216(%rsp), %r13	# MEM[(long unsigned int *)&D.95701 + 8B], D.96699
.LBE4712:
.LBE4711:
.LBE4710:
.LBE4709:
.LBE4706:
.LBE4705:
	.loc 5 9 0
	movl	64(%rbx), %eax	# MEM[(const struct info &)__first$_M_current_142].qnty, D.96697
	movq	640(%rsp), %r12	# MEM[(char * *)&D.96292], D.96695
	cmpq	%r13, %rbp	# D.96699, D.96699
	movq	%r13, %rdx	# D.96699, __len
	cmovbe	%rbp, %rdx	# D.96699,, __len
	movl	%eax, 704(%rsp)	# D.96697, D.96292.qnty
.LVL471:
.LBE4690:
.LBE4689:
.LBB4718:
.LBB4719:
.LBB4720:
.LBB4721:
.LBB4722:
.LBB4723:
	.loc 4 260 0
	testq	%rdx, %rdx	# __len
	jne	.L325	#,
.LVL472:
.L187:
.LBE4723:
.LBE4722:
.LBB4725:
.LBB4726:
	.loc 3 351 0
	subq	%r13, %rbp	# D.96699, D.96699
.LVL473:
	.loc 3 354 0
	movl	$2147483647, %eax	#, __r
	.loc 3 353 0
	cmpq	$2147483647, %rbp	#, D.96699
	jle	.L326	#,
.LVL474:
.L191:
	movq	672(%rsp), %rdi	# MEM[(char * *)&D.96292 + 32B], D.96695
.LVL475:
.LBE4726:
.LBE4725:
.LBE4721:
.LBE4720:
.LBE4719:
.LBE4718:
.LBB4733:
.LBB4734:
.LBB4735:
.LBB4736:
.LBB4737:
	.loc 3 179 0
	leaq	688(%rsp), %rdx	#, tmp466
	cmpq	%rdx, %rdi	# tmp466, D.96695
	je	.L192	#,
	movl	%eax, (%rsp)	# __r, %sfp
.LVL476:
.LBB4738:
.LBB4739:
.LBB4740:
.LBB4741:
	.loc 10 110 0
	call	_ZdlPv	#
.LVL477:
	movq	640(%rsp), %r12	# MEM[(char * *)&D.96292], D.96695
	movl	(%rsp), %eax	# %sfp, __r
.LVL478:
.L192:
.LBE4741:
.LBE4740:
.LBE4739:
.LBE4738:
.LBE4737:
.LBE4736:
.LBE4735:
.LBE4734:
.LBB4742:
.LBB4743:
.LBB4744:
	.loc 3 179 0
	leaq	656(%rsp), %rdx	#, tmp468
	cmpq	%rdx, %r12	# tmp468, D.96695
	je	.L193	#,
.LBB4745:
.LBB4746:
.LBB4747:
.LBB4748:
	.loc 10 110 0
	movq	%r12, %rdi	# D.96695,
	movl	%eax, (%rsp)	# __r, %sfp
.LVL479:
	call	_ZdlPv	#
.LVL480:
	movl	(%rsp), %eax	# %sfp, __r
.LVL481:
.L193:
.LBE4748:
.LBE4747:
.LBE4746:
.LBE4745:
.LBE4744:
.LBE4743:
.LBE4742:
.LBE4733:
.LBE4688:
.LBE4687:
	.loc 17 144 0
	testl	%eax, %eax	# __r
	je	.L242	#,
.LVL482:
.LBB4753:
.LBB4754:
	.loc 16 763 0
	addq	$72, %rbx	#, __first$_M_current
.LVL483:
	jmp	.L179	#
.LVL484:
.L194:
.LBE4754:
.LBE4753:
.LBB4755:
.LBB4616:
.LBB4613:
.LBB4596:
.LBB4595:
.LBB4594:
.LBB4592:
.LBB4593:
	.loc 3 351 0
	subq	%rcx, %r12	# D.96699, D.96699
.LVL485:
	.loc 3 354 0
	movl	$2147483647, %eax	#, __r
	.loc 3 353 0
	cmpq	$2147483647, %r12	#, D.96699
	jg	.L198	#,
	.loc 3 358 0
	cmpq	$-2147483648, %r12	#, D.96699
	movl	$-2147483648, %eax	#, tmp569
	cmovge	%r12d, %eax	# D.96699,, __r
	jmp	.L198	#
.LVL486:
	.p2align 4,,10
	.p2align 3
.L318:
.LBE4593:
.LBE4592:
.LBE4594:
.LBE4595:
.LBE4596:
.LBE4613:
.LBE4616:
.LBE4755:
.LBB4756:
.LBB4757:
	.loc 16 763 0
	leaq	144(%rbx), %rax	#, D.96700
	movq	%rax, 16(%rsp)	# D.96700, %sfp
.LVL487:
	jmp	.L150	#
.LVL488:
	.p2align 4,,10
	.p2align 3
.L319:
.LBE4757:
.LBE4756:
.LBB4758:
.LBB4759:
	leaq	216(%rbx), %rax	#, D.96700
	movq	%rax, 16(%rsp)	# D.96700, %sfp
.LVL489:
	jmp	.L150	#
.LVL490:
.L322:
.LBE4759:
.LBE4758:
.LBE4771:
.LBE4788:
.LBE4805:
.LBE4830:
.LBE4858:
.LBE4992:
.LBB4993:
.LBB4882:
.LBB4883:
.LBB4884:
.LBB4885:
.LBB4886:
	.loc 3 109 0
	leaq	720(%rsp), %rbp	#, tmp560
.LVL491:
.LBE4886:
.LBE4885:
.LBE4884:
.LBE4883:
.LBB4907:
.LBB4908:
	.loc 6 561 0
	movl	$25, %edx	#,
	movl	$.LC14, %esi	#,
	movl	$_ZSt4cout, %edi	#,
.LBE4908:
.LBE4907:
.LBB4910:
.LBB4896:
.LBB4889:
.LBB4890:
.LBB4891:
	.loc 3 131 0
	movq	$0, 728(%rsp)	#, MEM[(size_type *)&temp + 8B]
.LBE4891:
.LBE4890:
.LBB4892:
.LBB4893:
	.loc 4 243 0
	movb	$0, 736(%rsp)	#, MEM[(char_type &)&temp + 16]
.LBE4893:
.LBE4892:
.LBE4889:
.LBB4894:
.LBB4887:
	.loc 3 109 0
	leaq	16(%rbp), %rax	#, tmp511
.LBE4887:
.LBE4894:
.LBE4896:
.LBB4897:
.LBB4898:
.LBB4899:
.LBB4900:
	.loc 3 131 0
	movq	$0, 760(%rsp)	#, MEM[(size_type *)&temp + 40B]
.LBE4900:
.LBE4899:
.LBB4901:
.LBB4902:
	.loc 4 243 0
	movb	$0, 768(%rsp)	#, MEM[(char_type &)&temp + 48]
.LBE4902:
.LBE4901:
.LBE4898:
.LBE4897:
.LBB4905:
.LBB4895:
.LBB4888:
	.loc 3 109 0
	movq	%rax, 720(%rsp)	# tmp511, MEM[(struct _Alloc_hider *)&temp]._M_p
.LVL492:
.LBE4888:
.LBE4895:
.LBE4905:
.LBB4906:
.LBB4903:
.LBB4904:
	leaq	48(%rbp), %rax	#, tmp513
	movq	%rax, 752(%rsp)	# tmp513, MEM[(struct _Alloc_hider *)&temp + 32B]._M_p
.LVL493:
.LEHB31:
.LBE4904:
.LBE4903:
.LBE4906:
.LBE4910:
.LBB4911:
.LBB4909:
	.loc 6 561 0
	call	_ZSt16__ostream_insertIcSt11char_traitsIcEERSt13basic_ostreamIT_T0_ES6_PKS3_l	#
.LVL494:
.LBE4909:
.LBE4911:
.LBB4912:
.LBB4913:
.LBB4914:
	.loc 3 1095 0
	movq	24(%rsp), %rsi	# %sfp,
	movq	%rbp, %rdi	# tmp560,
	call	_ZNSt7__cxx1112basic_stringIcSt11char_traitsIcESaIcEE9_M_assignERKS4_	#
.LVL495:
.LBE4914:
.LBE4913:
.LBE4912:
	.loc 5 37 0
	movl	44(%rsp), %eax	# temp_qnty, temp_qnty
.LBB4915:
.LBB4916:
.LBB4917:
	.loc 3 1095 0
	leaq	32(%rbp), %rdi	#, tmp518
	leaq	48(%rsp), %rsi	#, tmp682
.LBE4917:
.LBE4916:
.LBE4915:
	.loc 5 37 0
	movl	%eax, 784(%rsp)	# temp_qnty, temp.qnty
.LVL496:
.LBB4920:
.LBB4919:
.LBB4918:
	.loc 3 1095 0
	call	_ZNSt7__cxx1112basic_stringIcSt11char_traitsIcESaIcEE9_M_assignERKS4_	#
.LVL497:
.LBE4918:
.LBE4919:
.LBE4920:
.LBB4921:
.LBB4922:
	.loc 8 915 0
	movq	entry+8(%rip), %rbx	# entry.D.85959._M_impl._M_finish, D.96700
	cmpq	entry+16(%rip), %rbx	# entry.D.85959._M_impl._M_end_of_storage, D.96700
	je	.L213	#,
.LVL498:
.LBB4923:
.LBB4924:
.LBB4925:
	.loc 10 120 0
	testq	%rbx, %rbx	# D.96700
	je	.L214	#,
.LVL499:
.LBB4926:
.LBB4927:
.LBB4928:
.LBB4929:
.LBB4930:
.LBB4931:
	.loc 3 141 0
	leaq	16(%rbx), %r13	#, D.96706
.LVL500:
.LBE4931:
.LBE4930:
.LBB4932:
.LBB4933:
.LBB4934:
.LBB4935:
	.loc 3 195 0
	movq	%rbx, %rdi	# D.96700,
.LBE4935:
.LBE4934:
.LBE4933:
.LBE4932:
.LBB4939:
.LBB4940:
	.loc 3 109 0
	movq	%r13, (%rbx)	# D.96706, MEM[(struct _Alloc_hider *)_20]._M_p
.LVL501:
	movq	720(%rsp), %rsi	# MEM[(char * *)&temp], D.96695
.LVL502:
.LBE4940:
.LBE4939:
.LBB4941:
.LBB4938:
.LBB4937:
.LBB4936:
	.loc 3 195 0
	movq	%rsi, %rdx	# D.96695, D.96695
	addq	728(%rsp), %rdx	# MEM[(long unsigned int *)&temp + 8B], D.96695
.LVL503:
	call	_ZNSt7__cxx1112basic_stringIcSt11char_traitsIcESaIcEE12_M_constructIPcEEvT_S7_St20forward_iterator_tag.isra.33	#
.LVL504:
.LEHE31:
.LBE4936:
.LBE4937:
.LBE4938:
.LBE4941:
.LBE4929:
.LBE4928:
.LBB4942:
.LBB4943:
.LBB4944:
.LBB4945:
	.loc 3 141 0
	leaq	48(%rbx), %rax	#, tmp524
.LVL505:
	leaq	32(%rbx), %rdi	#, tmp523
.LVL506:
	movq	%rax, 32(%rbx)	# tmp524, MEM[(struct _Alloc_hider *)_20 + 32B]._M_p
.LVL507:
	movq	752(%rsp), %rsi	# MEM[(char * *)&temp + 32B], D.96695
.LVL508:
.LBE4945:
.LBE4944:
.LBB4946:
.LBB4947:
.LBB4948:
.LBB4949:
	.loc 3 195 0
	movq	%rsi, %rdx	# D.96695, D.96695
	addq	760(%rsp), %rdx	# MEM[(long unsigned int *)&temp + 40B], D.96695
.LVL509:
.LEHB32:
	call	_ZNSt7__cxx1112basic_stringIcSt11char_traitsIcESaIcEE12_M_constructIPcEEvT_S7_St20forward_iterator_tag.isra.33	#
.LVL510:
.LEHE32:
.LBE4949:
.LBE4948:
.LBE4947:
.LBE4946:
.LBE4943:
.LBE4942:
	.loc 5 9 0
	movl	784(%rsp), %eax	# temp.qnty, D.96697
	movl	%eax, 64(%rbx)	# D.96697, _20->qnty
	movq	entry+8(%rip), %rbx	# entry.D.85959._M_impl._M_finish, D.96700
.LVL511:
.L214:
.LBE4927:
.LBE4926:
.LBE4925:
.LBE4924:
.LBE4923:
	.loc 8 919 0
	addq	$72, %rbx	#, tmp534
	movq	%rbx, entry+8(%rip)	# tmp534, entry.D.85959._M_impl._M_finish
.LVL512:
.L218:
	movq	752(%rsp), %rdi	# MEM[(char * *)&temp + 32B], D.96695
.LVL513:
.LBE4922:
.LBE4921:
.LBB4964:
.LBB4965:
.LBB4966:
.LBB4967:
.LBB4968:
	.loc 3 179 0
	leaq	48(%rbp), %rax	#, tmp537
	cmpq	%rax, %rdi	# tmp537, D.96695
	je	.L219	#,
.LVL514:
.LBB4969:
.LBB4970:
.LBB4971:
.LBB4972:
	.loc 10 110 0
	call	_ZdlPv	#
.LVL515:
.L219:
	movq	720(%rsp), %rdi	# MEM[(char * *)&temp], D.96695
.LVL516:
.LBE4972:
.LBE4971:
.LBE4970:
.LBE4969:
.LBE4968:
.LBE4967:
.LBE4966:
.LBE4965:
.LBB4973:
.LBB4974:
.LBB4975:
	.loc 3 179 0
	addq	$16, %rbp	#, tmp539
.LVL517:
	cmpq	%rbp, %rdi	# tmp539, D.96695
	je	.L221	#,
.LVL518:
.LBB4976:
.LBB4977:
.LBB4978:
.LBB4979:
	.loc 10 110 0
	call	_ZdlPv	#
.LVL519:
	jmp	.L221	#
.LVL520:
.L325:
.LBE4979:
.LBE4978:
.LBE4977:
.LBE4976:
.LBE4975:
.LBE4974:
.LBE4973:
.LBE4964:
.LBE4882:
.LBE4993:
.LBB4994:
.LBB4859:
.LBB4831:
.LBB4806:
.LBB4789:
.LBB4772:
.LBB4760:
.LBB4751:
.LBB4749:
.LBB4732:
.LBB4731:
.LBB4730:
.LBB4728:
.LBB4724:
	.loc 4 262 0
	movq	208(%rsp), %rsi	# MEM[(char * *)&D.95701],
	movq	%r12, %rdi	# D.96695,
	call	memcmp	#
.LVL521:
.LBE4724:
.LBE4728:
	.loc 3 2319 0
	testl	%eax, %eax	# __r
	jne	.L191	#,
	jmp	.L187	#
.LVL522:
.L326:
.LBB4729:
.LBB4727:
	.loc 3 358 0
	cmpq	$-2147483648, %rbp	#, D.96699
	movl	$-2147483648, %eax	#, tmp568
	cmovge	%ebp, %eax	# D.96699,, __r
	jmp	.L191	#
.LVL523:
.L324:
.LBE4727:
.LBE4729:
.LBE4730:
.LBE4731:
.LBE4732:
.LBE4749:
.LBE4751:
.LBE4760:
.LBB4761:
.LBB4683:
.LBB4681:
.LBB4664:
.LBB4663:
.LBB4662:
.LBB4661:
.LBB4658:
	.loc 4 262 0
	movq	208(%rsp), %rsi	# MEM[(char * *)&D.95701],
	movq	%r12, %rdi	# D.96695,
	call	memcmp	#
.LVL524:
.LBE4658:
.LBE4661:
	.loc 3 2319 0
	testl	%eax, %eax	# __r
	jne	.L184	#,
	jmp	.L180	#
.LVL525:
.L213:
.LBE4662:
.LBE4663:
.LBE4664:
.LBE4681:
.LBE4683:
.LBE4761:
.LBE4772:
.LBE4789:
.LBE4806:
.LBE4831:
.LBE4859:
.LBE4994:
.LBB4995:
.LBB4982:
.LBB4980:
.LBB4962:
	.loc 8 923 0
	movq	%rbp, %rsi	# tmp560,
	movl	$entry, %edi	#,
.LEHB33:
	call	_ZNSt6vectorI4infoSaIS0_EE19_M_emplace_back_auxIJRKS0_EEEvDpOT_	#
.LVL526:
.LEHE33:
	jmp	.L218	#
.LVL527:
.L258:
	movq	640(%rsp), %rdi	# MEM[(char * *)&D.96292], D.96695
	movq	%rax, %rbx	#, tmp460
.LVL528:
.LBE4962:
.LBE4980:
.LBE4982:
.LBE4995:
.LBB4996:
.LBB4860:
.LBB4832:
.LBB4807:
.LBB4790:
.LBB4773:
.LBB4762:
.LBB4752:
.LBB4750:
.LBB4717:
.LBB4713:
.LBB4714:
.LBB4715:
.LBB4716:
	.loc 3 179 0
	leaq	656(%rsp), %rax	#, tmp459
	cmpq	%rax, %rdi	# tmp459, D.96695
	je	.L146	#,
.LVL529:
.L302:
.LBE4716:
.LBE4715:
.LBE4714:
.LBE4713:
.LBE4717:
.LBE4750:
.LBE4752:
.LBE4762:
.LBB4763:
.LBB4617:
.LBB4614:
.LBB4584:
.LBB4572:
.LBB4573:
.LBB4574:
.LBB4575:
.LBB4576:
.LBB4577:
.LBB4578:
.LBB4579:
	.loc 10 110 0
	call	_ZdlPv	#
.LVL530:
.L146:
	movq	208(%rsp), %rdi	# MEM[(char * *)&D.95701], D.96695
.LVL531:
.LBE4579:
.LBE4578:
.LBE4577:
.LBE4576:
.LBE4575:
.LBE4574:
.LBE4573:
.LBE4572:
.LBE4584:
.LBE4614:
.LBE4617:
.LBE4763:
.LBE4773:
.LBE4790:
.LBB4791:
.LBB4792:
.LBB4793:
.LBB4794:
.LBB4795:
	.loc 3 179 0
	leaq	224(%rsp), %rdx	#, tmp496
	cmpq	%rdx, %rdi	# tmp496, D.96695
	je	.L205	#,
.LVL532:
.LBB4796:
.LBB4797:
.LBB4798:
.LBB4799:
	.loc 10 110 0
	call	_ZdlPv	#
.LVL533:
.L205:
	movq	144(%rsp), %rdi	# MEM[(char * *)&D.95552], D.96695
.LVL534:
.LBE4799:
.LBE4798:
.LBE4797:
.LBE4796:
.LBE4795:
.LBE4794:
.LBE4793:
.LBE4792:
.LBE4791:
.LBE4807:
.LBE4832:
.LBB4833:
.LBB4834:
.LBB4835:
.LBB4836:
.LBB4837:
	.loc 3 179 0
	leaq	160(%rsp), %rdx	#, tmp504
	cmpq	%rdx, %rdi	# tmp504, D.96695
	je	.L140	#,
.LVL535:
.L307:
.LBB4838:
.LBB4839:
.LBB4840:
.LBB4841:
	.loc 10 110 0
	call	_ZdlPv	#
.LVL536:
.L140:
	movq	112(%rsp), %rdi	# MEM[(char * *)&D.95551], D.96695
.LVL537:
.LBE4841:
.LBE4840:
.LBE4839:
.LBE4838:
.LBE4837:
.LBE4836:
.LBE4835:
.LBE4834:
.LBE4833:
.LBB4842:
.LBB4843:
.LBB4844:
.LBB4845:
	.loc 3 179 0
	leaq	128(%rsp), %rdx	#, tmp506
	cmpq	%rdx, %rdi	# tmp506, D.96695
	je	.L211	#,
.LVL538:
.LBB4846:
.LBB4847:
.LBB4848:
.LBB4849:
	.loc 10 110 0
	call	_ZdlPv	#
.LVL539:
.L211:
	movq	80(%rsp), %rdi	# MEM[(char * *)&D.86226], D.96695
.LVL540:
.LBE4849:
.LBE4848:
.LBE4847:
.LBE4846:
.LBE4845:
.LBE4844:
.LBE4843:
.LBE4842:
.LBE4860:
.LBE4996:
.LBB4997:
.LBB4998:
.LBB4999:
.LBB5000:
	.loc 3 179 0 discriminator 2
	leaq	96(%rsp), %rdx	#, tmp544
	cmpq	%rdx, %rdi	# tmp544, D.96695
	je	.L224	#,
.LVL541:
.LBB5001:
.LBB5002:
.LBB5003:
.LBB5004:
	.loc 10 110 0
	call	_ZdlPv	#
.LVL542:
.L224:
	movq	48(%rsp), %rdi	# MEM[(char * *)&temp_notes], D.96695
.LVL543:
.LBE5004:
.LBE5003:
.LBE5002:
.LBE5001:
.LBE5000:
.LBE4999:
.LBE4998:
.LBE4997:
.LBB5005:
.LBB5006:
.LBB5007:
	.loc 3 179 0
	leaq	64(%rsp), %rdx	#, tmp549
	cmpq	%rdx, %rdi	# tmp549, D.96695
	je	.L225	#,
.LVL544:
.LBB5008:
.LBB5009:
.LBB5010:
.LBB5011:
	.loc 10 110 0
	call	_ZdlPv	#
.LVL545:
.L225:
	movq	%rbx, %rdi	# tmp545,
.LEHB34:
	call	_Unwind_Resume	#
.LVL546:
.LEHE34:
.L259:
	movq	720(%rsp), %rdi	# MEM[(char * *)&D.96404], D.96695
.LBE5011:
.LBE5010:
.LBE5009:
.LBE5008:
.LBE5007:
.LBE5006:
.LBE5005:
.LBB5012:
.LBB4861:
.LBB4850:
.LBB4808:
.LBB4800:
.LBB4774:
.LBB4764:
.LBB4618:
.LBB4615:
.LBB4585:
.LBB4583:
.LBB4582:
.LBB4581:
.LBB4580:
	.loc 3 179 0
	addq	$16, %rbp	#, tmp481
.LVL547:
	movq	%rax, %rbx	#, tmp482
.LVL548:
	cmpq	%rbp, %rdi	# tmp481, D.96695
	jne	.L302	#,
	jmp	.L146	#
.LVL549:
.L248:
	movq	%rax, %rbx	#, tmp529
.LVL550:
.L217:
.LBE4580:
.LBE4581:
.LBE4582:
.LBE4583:
.LBE4585:
.LBE4615:
.LBE4618:
.LBE4764:
.LBE4774:
.LBE4800:
.LBE4808:
.LBE4850:
.LBE4861:
.LBE5012:
.LBB5013:
.LBB4983:
	.loc 5 34 0
	movq	%rbp, %rdi	# tmp560,
	call	_ZN4infoD1Ev	#
.LVL551:
	jmp	.L224	#
.LVL552:
.L257:
	movq	560(%rsp), %rdi	# MEM[(char * *)&D.96180], D.96695
	movq	%rax, %rbx	#, tmp438
.LVL553:
.LBE4983:
.LBE5013:
.LBB5014:
.LBB4862:
.LBB4851:
.LBB4809:
.LBB4801:
.LBB4775:
.LBB4765:
.LBB4684:
.LBB4682:
.LBB4651:
.LBB4647:
.LBB4648:
.LBB4649:
.LBB4650:
	.loc 3 179 0
	leaq	576(%rsp), %rax	#, tmp437
	cmpq	%rax, %rdi	# tmp437, D.96695
	jne	.L302	#,
	jmp	.L146	#
.LVL554:
.L260:
	movq	(%rbx), %rdi	# MEM[(char * *)_20], D.96695
	movq	%rax, %r12	#, tmp530
.LVL555:
.LBE4650:
.LBE4649:
.LBE4648:
.LBE4647:
.LBE4651:
.LBE4682:
.LBE4684:
.LBE4765:
.LBE4775:
.LBE4801:
.LBE4809:
.LBE4851:
.LBE4862:
.LBE5014:
.LBB5015:
.LBB4984:
.LBB4981:
.LBB4963:
.LBB4961:
.LBB4960:
.LBB4959:
.LBB4958:
.LBB4957:
.LBB4950:
.LBB4951:
.LBB4952:
	cmpq	%rdi, %r13	# D.96695, D.96706
	je	.L216	#,
.LVL556:
.LBB4953:
.LBB4954:
.LBB4955:
.LBB4956:
	.loc 10 110 0
	call	_ZdlPv	#
.LVL557:
.L216:
	movq	%r12, %rbx	# tmp530, tmp529
.LVL558:
	jmp	.L217	#
.LVL559:
.L255:
	movq	400(%rsp), %rdi	# MEM[(char * *)&D.95956], D.96695
	movq	%rax, %rbx	#, tmp390
.LVL560:
.LBE4956:
.LBE4955:
.LBE4954:
.LBE4953:
.LBE4952:
.LBE4951:
.LBE4950:
.LBE4957:
.LBE4958:
.LBE4959:
.LBE4960:
.LBE4961:
.LBE4963:
.LBE4981:
.LBE4984:
.LBE5015:
.LBB5016:
.LBB4863:
.LBB4852:
.LBB4810:
.LBB4802:
.LBB4776:
.LBB4766:
.LBB4403:
.LBB4400:
.LBB4368:
.LBB4363:
.LBB4364:
.LBB4365:
.LBB4366:
	.loc 3 179 0
	leaq	416(%rsp), %rax	#, tmp389
	cmpq	%rax, %rdi	# tmp389, D.96695
	jne	.L302	#,
	jmp	.L146	#
.LVL561:
.L256:
	movq	480(%rsp), %rdi	# MEM[(char * *)&D.96068], D.96695
	movq	%rax, %rbx	#, tmp412
.LVL562:
.LBE4366:
.LBE4365:
.LBE4364:
.LBE4363:
.LBE4368:
.LBE4400:
.LBE4403:
.LBE4766:
.LBB4767:
.LBB4535:
.LBB4533:
.LBB4502:
.LBB4498:
.LBB4499:
.LBB4500:
.LBB4501:
	leaq	496(%rsp), %rax	#, tmp411
	cmpq	%rax, %rdi	# tmp411, D.96695
	jne	.L302	#,
	jmp	.L146	#
.LVL563:
.L250:
	movq	%rax, %rbx	#, tmp497
	jmp	.L205	#
.LVL564:
.L251:
	movq	176(%rsp), %rdi	# MEM[(char * *)&D.95637], D.96695
.LBE4501:
.LBE4500:
.LBE4499:
.LBE4498:
.LBE4502:
.LBE4533:
.LBE4535:
.LBE4767:
.LBE4776:
.LBE4802:
.LBE4810:
.LBE4852:
.LBB4853:
.LBB4251:
.LBB4247:
.LBB4248:
.LBB4249:
.LBB4250:
	leaq	192(%rsp), %rdx	#, tmp318
	movq	%rax, %rbx	#, tmp320
.LVL565:
	cmpq	%rdx, %rdi	# tmp318, D.96695
	jne	.L307	#,
	jmp	.L140	#
.LVL566:
.L249:
	movq	%rax, %rbx	#, tmp319
	jmp	.L140	#
.LVL567:
.L247:
	movq	%rax, %rbx	#, tmp507
	jmp	.L211	#
.LVL568:
.L316:
.LEHB35:
.LBE4250:
.LBE4249:
.LBE4248:
.LBE4247:
.LBE4251:
.LBE4853:
.LBE4863:
.LBE5016:
.LBB5017:
.LBB4161:
.LBB4159:
.LBB4157:
.LBB4155:
.LBB4148:
	.loc 7 50 0
	call	_ZSt16__throw_bad_castv	#
.LVL569:
.LEHE35:
.L253:
	movq	240(%rsp), %rdi	# MEM[(char * *)&D.95732], D.96695
	movq	%rax, %rbx	#, tmp345
.LVL570:
.LBE4148:
.LBE4155:
.LBE4157:
.LBE4159:
.LBE4161:
.LBE5017:
.LBB5018:
.LBB4864:
.LBB4854:
.LBB4811:
.LBB4803:
.LBB4777:
.LBB4768:
.LBB4469:
.LBB4467:
.LBB4465:
.LBB4461:
.LBB4462:
.LBB4463:
.LBB4464:
	.loc 3 179 0
	leaq	256(%rsp), %rax	#, tmp343
	cmpq	%rax, %rdi	# tmp343, D.96695
	jne	.L302	#,
	jmp	.L146	#
.LVL571:
.L252:
	movq	%rax, %rbx	#, tmp344
	jmp	.L146	#
.LVL572:
.L254:
	movq	320(%rsp), %rdi	# MEM[(char * *)&D.95844], D.96695
	movq	%rax, %rbx	#, tmp368
.LVL573:
.LBE4464:
.LBE4463:
.LBE4462:
.LBE4461:
.LBE4465:
.LBE4467:
.LBE4469:
.LBE4768:
.LBB4769:
.LBB4338:
.LBB4335:
.LBB4303:
.LBB4298:
.LBB4299:
.LBB4300:
.LBB4301:
	leaq	336(%rsp), %rax	#, tmp367
	cmpq	%rax, %rdi	# tmp367, D.96695
	jne	.L302	#,
	jmp	.L146	#
.LVL574:
.L246:
	movq	%rax, %rbx	#, tmp545
	jmp	.L224	#
.LVL575:
.L323:
.LBE4301:
.LBE4300:
.LBE4299:
.LBE4298:
.LBE4303:
.LBE4335:
.LBE4338:
.LBE4769:
.LBE4777:
.LBE4803:
.LBE4811:
.LBE4854:
.LBE4864:
.LBE5018:
	.loc 5 43 0
	call	__stack_chk_fail	#
.LVL576:
	.cfi_endproc
.LFE8029:
	.section	.gcc_except_table
.LLSDA8029:
	.byte	0xff
	.byte	0xff
	.byte	0x1
	.uleb128 .LLSDACSE8029-.LLSDACSB8029
.LLSDACSB8029:
	.uleb128 .LEHB11-.LFB8029
	.uleb128 .LEHE11-.LEHB11
	.uleb128 .L246-.LFB8029
	.uleb128 0
	.uleb128 .LEHB12-.LFB8029
	.uleb128 .LEHE12-.LEHB12
	.uleb128 .L247-.LFB8029
	.uleb128 0
	.uleb128 .LEHB13-.LFB8029
	.uleb128 .LEHE13-.LEHB13
	.uleb128 .L249-.LFB8029
	.uleb128 0
	.uleb128 .LEHB14-.LFB8029
	.uleb128 .LEHE14-.LEHB14
	.uleb128 .L251-.LFB8029
	.uleb128 0
	.uleb128 .LEHB15-.LFB8029
	.uleb128 .LEHE15-.LEHB15
	.uleb128 .L250-.LFB8029
	.uleb128 0
	.uleb128 .LEHB16-.LFB8029
	.uleb128 .LEHE16-.LEHB16
	.uleb128 .L252-.LFB8029
	.uleb128 0
	.uleb128 .LEHB17-.LFB8029
	.uleb128 .LEHE17-.LEHB17
	.uleb128 .L254-.LFB8029
	.uleb128 0
	.uleb128 .LEHB18-.LFB8029
	.uleb128 .LEHE18-.LEHB18
	.uleb128 .L252-.LFB8029
	.uleb128 0
	.uleb128 .LEHB19-.LFB8029
	.uleb128 .LEHE19-.LEHB19
	.uleb128 .L255-.LFB8029
	.uleb128 0
	.uleb128 .LEHB20-.LFB8029
	.uleb128 .LEHE20-.LEHB20
	.uleb128 .L252-.LFB8029
	.uleb128 0
	.uleb128 .LEHB21-.LFB8029
	.uleb128 .LEHE21-.LEHB21
	.uleb128 .L256-.LFB8029
	.uleb128 0
	.uleb128 .LEHB22-.LFB8029
	.uleb128 .LEHE22-.LEHB22
	.uleb128 .L252-.LFB8029
	.uleb128 0
	.uleb128 .LEHB23-.LFB8029
	.uleb128 .LEHE23-.LEHB23
	.uleb128 .L253-.LFB8029
	.uleb128 0
	.uleb128 .LEHB24-.LFB8029
	.uleb128 .LEHE24-.LEHB24
	.uleb128 .L246-.LFB8029
	.uleb128 0
	.uleb128 .LEHB25-.LFB8029
	.uleb128 .LEHE25-.LEHB25
	.uleb128 .L252-.LFB8029
	.uleb128 0
	.uleb128 .LEHB26-.LFB8029
	.uleb128 .LEHE26-.LEHB26
	.uleb128 .L259-.LFB8029
	.uleb128 0
	.uleb128 .LEHB27-.LFB8029
	.uleb128 .LEHE27-.LEHB27
	.uleb128 .L252-.LFB8029
	.uleb128 0
	.uleb128 .LEHB28-.LFB8029
	.uleb128 .LEHE28-.LEHB28
	.uleb128 .L257-.LFB8029
	.uleb128 0
	.uleb128 .LEHB29-.LFB8029
	.uleb128 .LEHE29-.LEHB29
	.uleb128 .L252-.LFB8029
	.uleb128 0
	.uleb128 .LEHB30-.LFB8029
	.uleb128 .LEHE30-.LEHB30
	.uleb128 .L258-.LFB8029
	.uleb128 0
	.uleb128 .LEHB31-.LFB8029
	.uleb128 .LEHE31-.LEHB31
	.uleb128 .L248-.LFB8029
	.uleb128 0
	.uleb128 .LEHB32-.LFB8029
	.uleb128 .LEHE32-.LEHB32
	.uleb128 .L260-.LFB8029
	.uleb128 0
	.uleb128 .LEHB33-.LFB8029
	.uleb128 .LEHE33-.LEHB33
	.uleb128 .L248-.LFB8029
	.uleb128 0
	.uleb128 .LEHB34-.LFB8029
	.uleb128 .LEHE34-.LEHB34
	.uleb128 0
	.uleb128 0
	.uleb128 .LEHB35-.LFB8029
	.uleb128 .LEHE35-.LEHB35
	.uleb128 .L246-.LFB8029
	.uleb128 0
.LLSDACSE8029:
	.text
	.size	_Z5enterNSt7__cxx1112basic_stringIcSt11char_traitsIcESaIcEEE, .-_Z5enterNSt7__cxx1112basic_stringIcSt11char_traitsIcESaIcEEE
	.section	.text.unlikely
.LCOLDE15:
	.text
.LHOTE15:
	.section	.text.unlikely
.LCOLDB16:
	.text
.LHOTB16:
	.p2align 4,,15
	.globl	_Z6readInNSt7__cxx1112basic_stringIcSt11char_traitsIcESaIcEEE
	.type	_Z6readInNSt7__cxx1112basic_stringIcSt11char_traitsIcESaIcEEE, @function
_Z6readInNSt7__cxx1112basic_stringIcSt11char_traitsIcESaIcEEE:
.LFB8043:
	.loc 5 46 0
	.cfi_startproc
	.cfi_personality 0x3,__gxx_personality_v0
	.cfi_lsda 0x3,.LLSDA8043
.LVL577:
	pushq	%r15	#
	.cfi_def_cfa_offset 16
	.cfi_offset 15, -16
	pushq	%r14	#
	.cfi_def_cfa_offset 24
	.cfi_offset 14, -24
	pushq	%r13	#
	.cfi_def_cfa_offset 32
	.cfi_offset 13, -32
	pushq	%r12	#
	.cfi_def_cfa_offset 40
	.cfi_offset 12, -40
	pushq	%rbp	#
	.cfi_def_cfa_offset 48
	.cfi_offset 6, -48
	pushq	%rbx	#
	.cfi_def_cfa_offset 56
	.cfi_offset 3, -56
	movq	%rdi, %rbx	# fname, fname
	subq	$616, %rsp	#,
	.cfi_def_cfa_offset 672
	.loc 5 46 0
	movq	%fs:40, %rax	#, tmp264
	movq	%rax, 600(%rsp)	# tmp264, D.96907
	xorl	%eax, %eax	# tmp264
.LVL578:
.LBB5194:
.LBB5195:
.LBB5196:
.LBB5197:
	.loc 3 109 0
	leaq	16(%rsp), %rax	#, tmp158
.LVL579:
.LBE5197:
.LBE5196:
.LBE5195:
.LBE5194:
.LBB5219:
.LBB5220:
.LBB5221:
.LBB5222:
	.loc 7 462 0
	leaq	336(%rsp), %rdi	#, tmp162
.LVL580:
.LBE5222:
.LBE5221:
.LBE5220:
.LBE5219:
.LBB5249:
.LBB5205:
.LBB5199:
.LBB5200:
.LBB5201:
	.loc 3 131 0
	movq	$0, 8(%rsp)	#, MEM[(size_type *)&temp + 8B]
.LBE5201:
.LBE5200:
.LBB5202:
.LBB5203:
	.loc 4 243 0
	movb	$0, 16(%rsp)	#, MEM[(char_type &)&temp + 16]
.LBE5203:
.LBE5202:
.LBE5199:
.LBE5205:
.LBB5206:
.LBB5207:
.LBB5208:
.LBB5209:
	.loc 3 131 0
	movq	$0, 40(%rsp)	#, MEM[(size_type *)&temp + 40B]
.LBE5209:
.LBE5208:
.LBE5207:
.LBE5206:
.LBB5217:
.LBB5204:
.LBB5198:
	.loc 3 109 0
	movq	%rax, (%rsp)	# tmp158, MEM[(struct _Alloc_hider *)&temp]._M_p
.LVL581:
.LBE5198:
.LBE5204:
.LBE5217:
.LBB5218:
.LBB5212:
.LBB5213:
	leaq	48(%rsp), %rax	#, tmp160
.LVL582:
.LBE5213:
.LBE5212:
.LBB5215:
.LBB5210:
.LBB5211:
	.loc 4 243 0
	movb	$0, 48(%rsp)	#, MEM[(char_type &)&temp + 48]
.LBE5211:
.LBE5210:
.LBE5215:
.LBB5216:
.LBB5214:
	.loc 3 109 0
	movq	%rax, 32(%rsp)	# tmp160, MEM[(struct _Alloc_hider *)&temp + 32B]._M_p
.LVL583:
.LBE5214:
.LBE5216:
.LBE5218:
.LBE5249:
.LBB5250:
.LBB5247:
.LBB5228:
.LBB5223:
	.loc 7 462 0
	call	_ZNSt8ios_baseC2Ev	#
.LVL584:
.LBE5223:
.LBE5228:
.LBB5229:
.LBB5230:
	.file 18 "/usr/include/c++/5/istream"
	.loc 18 607 0
	movq	_ZTTSt14basic_ifstreamIcSt11char_traitsIcEE+8(%rip), %r13	# MEM[(const void * *)&_ZTTSt14basic_ifstreamIcSt11char_traitsIcEE + 8B], MEM[(const void * *)&_ZTTSt14basic_ifstreamIcSt11char_traitsIcEE + 8B]
.LBE5230:
.LBE5229:
.LBB5235:
.LBB5224:
	.loc 7 462 0
	movb	$0, 560(%rsp)	#, MEM[(struct basic_ios *)&in + 256B]._M_fill
.LBE5224:
.LBE5235:
.LBB5236:
.LBB5231:
	.loc 18 608 0
	leaq	80(%rsp), %rdi	#, D.96899
.LVL585:
	.loc 18 607 0
	movq	_ZTTSt14basic_ifstreamIcSt11char_traitsIcEE+16(%rip), %r14	# MEM[(const void * *)&_ZTTSt14basic_ifstreamIcSt11char_traitsIcEE + 16B], MEM[(const void * *)&_ZTTSt14basic_ifstreamIcSt11char_traitsIcEE + 16B]
.LBE5231:
.LBE5236:
.LBB5237:
.LBB5225:
	.loc 7 462 0
	movq	$_ZTVSt9basic_iosIcSt11char_traitsIcEE+16, 336(%rsp)	#, MEM[(struct basic_ios *)&in + 256B].D.31416._vptr.ios_base
.LBE5225:
.LBE5237:
.LBB5238:
.LBB5232:
	.loc 18 608 0
	xorl	%esi, %esi	#
.LBE5232:
.LBE5238:
.LBB5239:
.LBB5226:
	.loc 7 462 0
	movq	$0, 552(%rsp)	#, MEM[(struct basic_ios *)&in + 256B]._M_tie
	movb	$0, 561(%rsp)	#, MEM[(struct basic_ios *)&in + 256B]._M_fill_init
.LBE5226:
.LBE5239:
.LBB5240:
.LBB5233:
	.loc 18 607 0
	movq	-24(%r13), %rax	# MEM[(long int *)_34 + -24B], MEM[(long int *)_34 + -24B]
.LBE5233:
.LBE5240:
.LBB5241:
.LBB5227:
	.loc 7 462 0
	movq	$0, 568(%rsp)	#, MEM[(struct basic_ios *)&in + 256B]._M_streambuf
	movq	$0, 576(%rsp)	#, MEM[(struct basic_ios *)&in + 256B]._M_ctype
	movq	$0, 584(%rsp)	#, MEM[(struct basic_ios *)&in + 256B]._M_num_put
	movq	$0, 592(%rsp)	#, MEM[(struct basic_ios *)&in + 256B]._M_num_get
.LVL586:
.LBE5227:
.LBE5241:
.LBB5242:
.LBB5234:
	.loc 18 607 0
	movq	%r13, 80(%rsp)	# MEM[(const void * *)&_ZTTSt14basic_ifstreamIcSt11char_traitsIcEE + 8B], MEM[(struct basic_istream *)&in]._vptr.basic_istream
	movq	%r14, 80(%rsp,%rax)	# MEM[(const void * *)&_ZTTSt14basic_ifstreamIcSt11char_traitsIcEE + 16B], _37->D.31416._vptr.ios_base
	movq	$0, 88(%rsp)	#, MEM[(struct basic_istream *)&in]._M_gcount
	.loc 18 608 0
	addq	-24(%r13), %rdi	# MEM[(long int *)_34 + -24B], D.96899
.LVL587:
.LEHB36:
	call	_ZNSt9basic_iosIcSt11char_traitsIcEE4initEPSt15basic_streambufIcS1_E	#
.LVL588:
.LEHE36:
.LBE5234:
.LBE5242:
	.loc 11 481 0
	leaq	96(%rsp), %rdi	#, tmp170
	movq	$_ZTVSt14basic_ifstreamIcSt11char_traitsIcEE+24, 80(%rsp)	#, in.D.38054._vptr.basic_istream
	movq	$_ZTVSt14basic_ifstreamIcSt11char_traitsIcEE+64, 336(%rsp)	#, MEM[(struct basic_ios *)&in + 256B].D.31416._vptr.ios_base
.LEHB37:
	call	_ZNSt13basic_filebufIcSt11char_traitsIcEEC1Ev	#
.LVL589:
.LEHE37:
	.loc 11 482 0
	leaq	80(%rsp), %rax	#, tmp269
.LVL590:
	leaq	96(%rsp), %rsi	#, tmp172
	leaq	256(%rax), %rdi	#, tmp174
.LEHB38:
	call	_ZNSt9basic_iosIcSt11char_traitsIcEE4initEPSt15basic_streambufIcS1_E	#
.LVL591:
.LEHE38:
.LBE5247:
.LBE5250:
.LBB5251:
.LBB5252:
.LBB5253:
.LBB5254:
	.loc 11 308 0
	movq	(%rbx), %rsi	# MEM[(char * *)fname_7(D)],
	leaq	96(%rsp), %rdi	#, tmp189
.LVL592:
	movl	$8, %edx	#,
.LEHB39:
	call	_ZNSt13basic_filebufIcSt11char_traitsIcEE4openEPKcSt13_Ios_Openmode	#
.LVL593:
.LBE5254:
.LBE5253:
	.loc 11 617 0
	testq	%rax, %rax	# D.96901
.LBB5255:
.LBB5256:
	.loc 11 636 0
	leaq	80(%rsp), %rdi	#, D.96899
.LVL594:
	movq	80(%rsp), %rax	# in.D.38054._vptr.basic_istream, in.D.38054._vptr.basic_istream
.LBE5256:
.LBE5255:
	.loc 11 617 0
	je	.L370	#,
	.loc 11 622 0
	addq	-24(%rax), %rdi	#, D.96899
.LVL595:
	xorl	%esi, %esi	#
	call	_ZNSt9basic_iosIcSt11char_traitsIcEE5clearESt12_Ios_Iostate	#
.LVL596:
.L335:
.LBE5252:
.LBE5251:
	.loc 5 50 0
	leaq	80(%rsp), %rdi	#, tmp276
	movq	%rsp, %rsi	#,
	call	_ZStrsIcSt11char_traitsIcESaIcEERSt13basic_istreamIT_T0_ES7_RNSt7__cxx1112basic_stringIS4_S5_T1_EE	#
.LVL597:
	leaq	64(%rsp), %rsi	#, tmp202
	movq	%rax, %rdi	# D.96892,
	call	_ZNSirsERi	#
.LVL598:
.LBB5262:
.LBB5263:
	.loc 3 5214 0
	leaq	32(%rsp), %rbp	#, tmp262
.LVL599:
.LBE5263:
.LBE5262:
	.loc 5 55 0
	leaq	64(%rsp), %r12	#, tmp263
	jmp	.L361	#
.LVL600:
	.p2align 4,,10
	.p2align 3
.L373:
	movsbl	67(%rbx), %edx	# MEM[(const struct ctype *)_12]._M_widen, D.96896
.LVL601:
.L338:
.LBB5279:
.LBB5276:
	.loc 3 5214 0
	leaq	80(%rsp), %rdi	#, tmp278
.LVL602:
	movq	%rbp, %rsi	# tmp262,
	call	_ZSt7getlineIcSt11char_traitsIcESaIcEERSt13basic_istreamIT_T0_ES7_RNSt7__cxx1112basic_stringIS4_S5_T1_EES4_	#
.LVL603:
.LBE5276:
.LBE5279:
.LBB5280:
.LBB5281:
	.loc 8 915 0
	movq	entry+8(%rip), %rbx	# entry.D.85959._M_impl._M_finish, D.96895
	cmpq	entry+16(%rip), %rbx	# entry.D.85959._M_impl._M_end_of_storage, D.96895
	je	.L339	#,
.LVL604:
.LBB5282:
.LBB5283:
.LBB5284:
	.loc 10 120 0
	testq	%rbx, %rbx	# D.96895
	je	.L340	#,
.LVL605:
.LBB5285:
.LBB5286:
.LBB5287:
.LBB5288:
.LBB5289:
.LBB5290:
	.loc 3 141 0
	leaq	16(%rbx), %r15	#, D.96905
.LVL606:
.LBE5290:
.LBE5289:
.LBB5291:
.LBB5292:
.LBB5293:
.LBB5294:
	.loc 3 195 0
	movq	%rbx, %rdi	# D.96895,
.LBE5294:
.LBE5293:
.LBE5292:
.LBE5291:
.LBB5298:
.LBB5299:
	.loc 3 109 0
	movq	%r15, (%rbx)	# D.96905, MEM[(struct _Alloc_hider *)_85]._M_p
.LVL607:
	movq	(%rsp), %rsi	# MEM[(char * *)&temp], D.96900
.LVL608:
.LBE5299:
.LBE5298:
.LBB5300:
.LBB5297:
.LBB5296:
.LBB5295:
	.loc 3 195 0
	movq	%rsi, %rdx	# D.96900, D.96900
	addq	8(%rsp), %rdx	# MEM[(long unsigned int *)&temp + 8B], D.96900
.LVL609:
	call	_ZNSt7__cxx1112basic_stringIcSt11char_traitsIcESaIcEE12_M_constructIPcEEvT_S7_St20forward_iterator_tag.isra.33	#
.LVL610:
.LEHE39:
.LBE5295:
.LBE5296:
.LBE5297:
.LBE5300:
.LBE5288:
.LBE5287:
.LBB5301:
.LBB5302:
.LBB5303:
.LBB5304:
	.loc 3 141 0
	leaq	48(%rbx), %rax	#, tmp214
.LVL611:
	leaq	32(%rbx), %rdi	#, tmp213
.LVL612:
	movq	%rax, 32(%rbx)	# tmp214, MEM[(struct _Alloc_hider *)_85 + 32B]._M_p
.LVL613:
	movq	32(%rsp), %rsi	# MEM[(char * *)&temp + 32B], D.96900
.LVL614:
.LBE5304:
.LBE5303:
.LBB5305:
.LBB5306:
.LBB5307:
.LBB5308:
	.loc 3 195 0
	movq	%rsi, %rdx	# D.96900, D.96900
	addq	40(%rsp), %rdx	# MEM[(long unsigned int *)&temp + 40B], D.96900
.LVL615:
.LEHB40:
	call	_ZNSt7__cxx1112basic_stringIcSt11char_traitsIcESaIcEE12_M_constructIPcEEvT_S7_St20forward_iterator_tag.isra.33	#
.LVL616:
.LEHE40:
.LBE5308:
.LBE5307:
.LBE5306:
.LBE5305:
.LBE5302:
.LBE5301:
	.loc 5 9 0
	movl	64(%rsp), %eax	# temp.qnty, D.96896
	movl	%eax, 64(%rbx)	# D.96896, _85->qnty
	movq	entry+8(%rip), %rbx	# entry.D.85959._M_impl._M_finish, D.96895
.LVL617:
.L340:
.LBE5286:
.LBE5285:
.LBE5284:
.LBE5283:
.LBE5282:
	.loc 8 919 0
	addq	$72, %rbx	#, tmp224
	movq	%rbx, entry+8(%rip)	# tmp224, entry.D.85959._M_impl._M_finish
.LVL618:
.L344:
.LBE5281:
.LBE5280:
	.loc 5 55 0
	leaq	80(%rsp), %rdi	#, tmp281
	movq	%rsp, %rsi	#,
.LEHB41:
	call	_ZStrsIcSt11char_traitsIcESaIcEERSt13basic_istreamIT_T0_ES7_RNSt7__cxx1112basic_stringIS4_S5_T1_EE	#
.LVL619:
	movq	%r12, %rsi	# tmp263,
	movq	%rax, %rdi	# D.96892,
	call	_ZNSirsERi	#
.LVL620:
	.loc 5 51 0
	testb	$5, 368(%rsp)	#, MEM[(_Ios_Iostate *)&in + 288B]
	jne	.L371	#,
.LVL621:
.L361:
.LBB5323:
.LBB5277:
	.loc 3 5214 0
	movq	80(%rsp), %rax	# MEM[(struct basic_istream *)&in]._vptr.basic_istream, MEM[(struct basic_istream *)&in]._vptr.basic_istream
.LBB5264:
.LBB5265:
	.loc 7 450 0
	movq	-24(%rax), %rax	# MEM[(long int *)_60 + -24B], MEM[(long int *)_60 + -24B]
	movq	320(%rsp,%rax), %rbx	# MEM[(const struct basic_ios *)_63]._M_ctype, D.96893
.LVL622:
.LBB5266:
.LBB5267:
	.loc 7 49 0
	testq	%rbx, %rbx	# D.96893
	je	.L372	#,
.LVL623:
.LBE5267:
.LBE5266:
.LBB5269:
.LBB5270:
	.loc 1 874 0
	cmpb	$0, 56(%rbx)	#, MEM[(const struct ctype *)_12]._M_widen_ok
	jne	.L373	#,
.LVL624:
.LBB5271:
.LBB5272:
	.loc 1 876 0
	movq	%rbx, %rdi	# D.96893,
	call	_ZNKSt5ctypeIcE13_M_widen_initEv	#
.LVL625:
	.loc 1 877 0
	movq	(%rbx), %rax	# MEM[(const struct ctype *)_12].D.28244._vptr.facet, MEM[(const struct ctype *)_12].D.28244._vptr.facet
	movl	$10, %edx	#, D.96896
	movq	48(%rax), %rax	# MEM[(int (*__vtbl_ptr_type) () *)_75 + 48B], D.96903
	cmpq	$_ZNKSt5ctypeIcE8do_widenEc, %rax	#, D.96903
	je	.L338	#,
	movl	$10, %esi	#,
	movq	%rbx, %rdi	# D.96893,
	call	*%rax	# D.96903
.LVL626:
	movsbl	%al, %edx	# D.96902, D.96896
	jmp	.L338	#
.LVL627:
	.p2align 4,,10
	.p2align 3
.L339:
.LBE5272:
.LBE5271:
.LBE5270:
.LBE5269:
.LBE5265:
.LBE5264:
.LBE5277:
.LBE5323:
.LBB5324:
.LBB5321:
	.loc 8 923 0
	movq	%rsp, %rsi	#,
	movl	$entry, %edi	#,
	call	_ZNSt6vectorI4infoSaIS0_EE19_M_emplace_back_auxIJRKS0_EEEvDpOT_	#
.LVL628:
	jmp	.L344	#
.LVL629:
	.p2align 4,,10
	.p2align 3
.L371:
.LBE5321:
.LBE5324:
.LBB5325:
.LBB5326:
	.loc 11 635 0
	leaq	96(%rsp), %rdi	#, tmp233
	call	_ZNSt13basic_filebufIcSt11char_traitsIcEE5closeEv	#
.LVL630:
.LEHE41:
	testq	%rax, %rax	# D.96901
	je	.L346	#,
.LVL631:
.L349:
.LBE5326:
.LBE5325:
.LBB5332:
.LBB5333:
.LBB5334:
.LBB5335:
	.loc 11 239 0
	leaq	96(%rsp), %rdi	#, tmp235
.LBE5335:
.LBE5334:
	.loc 11 534 0
	movq	$_ZTVSt14basic_ifstreamIcSt11char_traitsIcEE+24, 80(%rsp)	#, in.D.38054._vptr.basic_istream
	movq	$_ZTVSt14basic_ifstreamIcSt11char_traitsIcEE+64, 336(%rsp)	#, MEM[(struct basic_ios *)&in + 256B].D.31416._vptr.ios_base
.LVL632:
.LBB5339:
.LBB5338:
	.loc 11 239 0
	movq	$_ZTVSt13basic_filebufIcSt11char_traitsIcEE+16, 96(%rsp)	#, MEM[(struct basic_filebuf *)&in + 16B].D.37902._vptr.basic_streambuf
	call	_ZNSt13basic_filebufIcSt11char_traitsIcEE5closeEv	#
.LVL633:
	leaq	200(%rsp), %rdi	#, tmp237
	call	_ZNSt12__basic_fileIcED1Ev	#
.LVL634:
.LBB5336:
.LBB5337:
	.loc 12 198 0
	leaq	152(%rsp), %rdi	#, tmp239
	movq	$_ZTVSt15basic_streambufIcSt11char_traitsIcEE+16, 96(%rsp)	#, MEM[(struct basic_streambuf *)&in + 16B]._vptr.basic_streambuf
	call	_ZNSt6localeD1Ev	#
.LVL635:
.LBE5337:
.LBE5336:
.LBE5338:
.LBE5339:
.LBB5340:
.LBB5341:
	.loc 18 104 0
	movq	-24(%r13), %rax	# MEM[(long int *)_112 + -24B], MEM[(long int *)_112 + -24B]
.LBE5341:
.LBE5340:
.LBB5343:
.LBB5344:
	.loc 7 282 0
	leaq	336(%rsp), %rdi	#, tmp246
.LBE5344:
.LBE5343:
.LBB5346:
.LBB5342:
	.loc 18 104 0
	movq	%r14, 80(%rsp,%rax)	# MEM[(const void * *)&_ZTTSt14basic_ifstreamIcSt11char_traitsIcEE + 16B], _115->D.31416._vptr.ios_base
.LVL636:
.LBE5342:
.LBE5346:
.LBB5347:
.LBB5345:
	.loc 7 282 0
	movq	$_ZTVSt9basic_iosIcSt11char_traitsIcEE+16, 336(%rsp)	#, MEM[(struct basic_ios *)&in + 256B].D.31416._vptr.ios_base
	call	_ZNSt8ios_baseD2Ev	#
.LVL637:
	movq	32(%rsp), %rdi	# MEM[(char * *)&temp + 32B], D.96900
.LVL638:
.LBE5345:
.LBE5347:
.LBE5333:
.LBE5332:
.LBB5348:
.LBB5349:
.LBB5350:
.LBB5351:
.LBB5352:
	.loc 3 179 0
	leaq	48(%rsp), %rax	#, tmp248
	cmpq	%rax, %rdi	# tmp248, D.96900
	je	.L348	#,
.LVL639:
.LBB5353:
.LBB5354:
.LBB5355:
.LBB5356:
	.loc 10 110 0
	call	_ZdlPv	#
.LVL640:
.L348:
	movq	(%rsp), %rdi	# MEM[(char * *)&temp], D.96900
.LVL641:
.LBE5356:
.LBE5355:
.LBE5354:
.LBE5353:
.LBE5352:
.LBE5351:
.LBE5350:
.LBE5349:
.LBB5357:
.LBB5358:
.LBB5359:
	.loc 3 179 0
	leaq	16(%rsp), %rax	#, tmp255
	cmpq	%rax, %rdi	# tmp255, D.96900
	je	.L327	#,
.LVL642:
.LBB5360:
.LBB5361:
.LBB5362:
.LBB5363:
	.loc 10 110 0
	call	_ZdlPv	#
.LVL643:
.L327:
.LBE5363:
.LBE5362:
.LBE5361:
.LBE5360:
.LBE5359:
.LBE5358:
.LBE5357:
.LBE5348:
	.loc 5 58 0
	movq	600(%rsp), %rax	# D.96907, tmp265
	xorq	%fs:40, %rax	#, tmp265
	jne	.L374	#,
	addq	$616, %rsp	#,
	.cfi_remember_state
	.cfi_def_cfa_offset 56
.LVL644:
	popq	%rbx	#
	.cfi_def_cfa_offset 48
	popq	%rbp	#
	.cfi_def_cfa_offset 40
.LVL645:
	popq	%r12	#
	.cfi_def_cfa_offset 32
	popq	%r13	#
	.cfi_def_cfa_offset 24
	popq	%r14	#
	.cfi_def_cfa_offset 16
	popq	%r15	#
	.cfi_def_cfa_offset 8
	ret
.LVL646:
.L370:
	.cfi_restore_state
.LBB5364:
.LBB5261:
.LBB5260:
.LBB5259:
	.loc 11 636 0
	addq	-24(%rax), %rdi	#, D.96899
.LVL647:
.LBB5257:
.LBB5258:
	.loc 7 158 0
	movl	32(%rdi), %esi	# MEM[(_Ios_Iostate *)_57 + 32B], D.96890
	orl	$4, %esi	#, D.96890
.LEHB42:
	call	_ZNSt9basic_iosIcSt11char_traitsIcEE5clearESt12_Ios_Iostate	#
.LVL648:
	jmp	.L335	#
.LVL649:
.L346:
.LBE5258:
.LBE5257:
.LBE5259:
.LBE5260:
.LBE5261:
.LBE5364:
.LBB5365:
.LBB5331:
.LBB5327:
.LBB5328:
	.loc 11 636 0
	movq	80(%rsp), %rax	# in.D.38054._vptr.basic_istream, in.D.38054._vptr.basic_istream
	leaq	80(%rsp), %rdi	#, D.96899
.LVL650:
	addq	-24(%rax), %rdi	# MEM[(long int *)_17 + -24B], D.96899
.LVL651:
.LBB5329:
.LBB5330:
	.loc 7 158 0
	movl	32(%rdi), %esi	# MEM[(_Ios_Iostate *)_104 + 32B], D.96890
	orl	$4, %esi	#, D.96890
	call	_ZNSt9basic_iosIcSt11char_traitsIcEE5clearESt12_Ios_Iostate	#
.LVL652:
	jmp	.L349	#
.LVL653:
.L372:
.LBE5330:
.LBE5329:
.LBE5328:
.LBE5327:
.LBE5331:
.LBE5365:
.LBB5366:
.LBB5278:
.LBB5275:
.LBB5274:
.LBB5273:
.LBB5268:
	.loc 7 50 0
	call	_ZSt16__throw_bad_castv	#
.LVL654:
.LEHE42:
.L353:
	movq	%rax, %rbx	#, tmp219
.L343:
.LBE5268:
.LBE5273:
.LBE5274:
.LBE5275:
.LBE5278:
.LBE5366:
	.loc 5 48 0
	leaq	80(%rsp), %rdi	#, tmp289
	call	_ZNSt14basic_ifstreamIcSt11char_traitsIcEED1Ev	#
.LVL655:
.L332:
	.loc 5 47 0
	movq	%rsp, %rdi	#,
	call	_ZN4infoD1Ev	#
.LVL656:
	movq	%rbx, %rdi	# tmp186,
.LEHB43:
	call	_Unwind_Resume	#
.LVL657:
.LEHE43:
.L356:
.LBB5367:
.LBB5248:
	.loc 11 481 0
	leaq	96(%rsp), %rdi	#, tmp176
	movq	%rax, %rbx	#, tmp178
.LVL658:
	call	_ZNSt13basic_filebufIcSt11char_traitsIcEED1Ev	#
.LVL659:
.L330:
.LBB5243:
.LBB5244:
	.loc 18 104 0
	movq	-24(%r13), %rax	# MEM[(long int *)_34 + -24B], MEM[(long int *)_34 + -24B]
	movq	%r14, 80(%rsp,%rax)	# MEM[(const void * *)&_ZTTSt14basic_ifstreamIcSt11char_traitsIcEE + 16B], _47->D.31416._vptr.ios_base
.LVL660:
.L331:
.LBE5244:
.LBE5243:
.LBB5245:
.LBB5246:
	.loc 7 282 0
	leaq	336(%rsp), %rdi	#, tmp185
.LVL661:
	movq	$_ZTVSt9basic_iosIcSt11char_traitsIcEE+16, 336(%rsp)	#, MEM[(struct basic_ios *)&in + 256B].D.31416._vptr.ios_base
	call	_ZNSt8ios_baseD2Ev	#
.LVL662:
	jmp	.L332	#
.LVL663:
.L355:
	movq	%rax, %rbx	#, tmp177
.LVL664:
	jmp	.L330	#
.LVL665:
.L354:
	movq	%rax, %rbx	#, tmp182
.LVL666:
	jmp	.L331	#
.LVL667:
.L374:
.LBE5246:
.LBE5245:
.LBE5248:
.LBE5367:
	.loc 5 58 0
	call	__stack_chk_fail	#
.LVL668:
.L357:
	movq	(%rbx), %rdi	# MEM[(char * *)_85], D.96900
	movq	%rax, %rbp	#, tmp220
.LVL669:
.LBB5368:
.LBB5322:
.LBB5320:
.LBB5319:
.LBB5318:
.LBB5317:
.LBB5316:
.LBB5309:
.LBB5310:
.LBB5311:
	.loc 3 179 0
	cmpq	%rdi, %r15	# D.96900, D.96905
	je	.L342	#,
.LVL670:
.LBB5312:
.LBB5313:
.LBB5314:
.LBB5315:
	.loc 10 110 0
	call	_ZdlPv	#
.LVL671:
.L342:
	movq	%rbp, %rbx	# tmp220, tmp219
.LVL672:
	jmp	.L343	#
.LBE5315:
.LBE5314:
.LBE5313:
.LBE5312:
.LBE5311:
.LBE5310:
.LBE5309:
.LBE5316:
.LBE5317:
.LBE5318:
.LBE5319:
.LBE5320:
.LBE5322:
.LBE5368:
	.cfi_endproc
.LFE8043:
	.section	.gcc_except_table
.LLSDA8043:
	.byte	0xff
	.byte	0xff
	.byte	0x1
	.uleb128 .LLSDACSE8043-.LLSDACSB8043
.LLSDACSB8043:
	.uleb128 .LEHB36-.LFB8043
	.uleb128 .LEHE36-.LEHB36
	.uleb128 .L354-.LFB8043
	.uleb128 0
	.uleb128 .LEHB37-.LFB8043
	.uleb128 .LEHE37-.LEHB37
	.uleb128 .L355-.LFB8043
	.uleb128 0
	.uleb128 .LEHB38-.LFB8043
	.uleb128 .LEHE38-.LEHB38
	.uleb128 .L356-.LFB8043
	.uleb128 0
	.uleb128 .LEHB39-.LFB8043
	.uleb128 .LEHE39-.LEHB39
	.uleb128 .L353-.LFB8043
	.uleb128 0
	.uleb128 .LEHB40-.LFB8043
	.uleb128 .LEHE40-.LEHB40
	.uleb128 .L357-.LFB8043
	.uleb128 0
	.uleb128 .LEHB41-.LFB8043
	.uleb128 .LEHE41-.LEHB41
	.uleb128 .L353-.LFB8043
	.uleb128 0
	.uleb128 .LEHB42-.LFB8043
	.uleb128 .LEHE42-.LEHB42
	.uleb128 .L353-.LFB8043
	.uleb128 0
	.uleb128 .LEHB43-.LFB8043
	.uleb128 .LEHE43-.LEHB43
	.uleb128 0
	.uleb128 0
.LLSDACSE8043:
	.text
	.size	_Z6readInNSt7__cxx1112basic_stringIcSt11char_traitsIcESaIcEEE, .-_Z6readInNSt7__cxx1112basic_stringIcSt11char_traitsIcESaIcEEE
	.section	.text.unlikely
.LCOLDE16:
	.text
.LHOTE16:
	.section	.rodata.str1.1
.LC17:
	.string	"What's the database file?\n>"
.LC18:
	.string	"command: "
	.section	.rodata.str1.8
	.align 8
.LC19:
	.string	"Thanks for using Will's database!\n"
	.section	.text.unlikely
.LCOLDB20:
	.section	.text.startup,"ax",@progbits
.LHOTB20:
	.p2align 4,,15
	.globl	main
	.type	main, @function
main:
.LFB8045:
	.loc 5 72 0
	.cfi_startproc
	.cfi_personality 0x3,__gxx_personality_v0
	.cfi_lsda 0x3,.LLSDA8045
	pushq	%r15	#
	.cfi_def_cfa_offset 16
	.cfi_offset 15, -16
	pushq	%r14	#
	.cfi_def_cfa_offset 24
	.cfi_offset 14, -24
	.loc 5 75 0
	movl	$.LC17, %esi	#,
	.loc 5 72 0
	pushq	%r13	#
	.cfi_def_cfa_offset 32
	.cfi_offset 13, -32
	pushq	%r12	#
	.cfi_def_cfa_offset 40
	.cfi_offset 12, -40
	.loc 5 75 0
	movl	$_ZSt4cout, %edi	#,
	.loc 5 72 0
	pushq	%rbp	#
	.cfi_def_cfa_offset 48
	.cfi_offset 6, -48
	pushq	%rbx	#
	.cfi_def_cfa_offset 56
	.cfi_offset 3, -56
	subq	$1032, %rsp	#,
	.cfi_def_cfa_offset 1088
	.loc 5 72 0
	movq	%fs:40, %rax	#, tmp634
	movq	%rax, 1016(%rsp)	# tmp634, D.98162
	xorl	%eax, %eax	# tmp634
.LVL673:
.LBB6599:
.LBB6600:
.LBB6601:
	.loc 3 109 0
	leaq	80(%rsp), %rax	#, tmp286
.LVL674:
.LBE6601:
.LBE6600:
.LBB6603:
.LBB6604:
.LBB6605:
	.loc 3 131 0
	movq	$0, 72(%rsp)	#, MEM[(size_type *)&file + 8B]
.LBE6605:
.LBE6604:
.LBB6606:
.LBB6607:
	.loc 4 243 0
	movb	$0, 80(%rsp)	#, MEM[(char_type &)&file + 16]
.LBE6607:
.LBE6606:
.LBE6603:
.LBE6599:
.LBB6609:
.LBB6610:
.LBB6611:
.LBB6612:
	.loc 3 131 0
	movq	$0, 104(%rsp)	#, MEM[(size_type *)&descriptor + 8B]
.LBE6612:
.LBE6611:
.LBB6613:
.LBB6614:
	.loc 4 243 0
	movb	$0, 112(%rsp)	#, MEM[(char_type &)&descriptor + 16]
.LBE6614:
.LBE6613:
.LBE6610:
.LBE6609:
.LBB6617:
.LBB6608:
.LBB6602:
	.loc 3 109 0
	movq	%rax, 64(%rsp)	# tmp286, MEM[(struct _Alloc_hider *)&file]._M_p
.LVL675:
.LBE6602:
.LBE6608:
.LBE6617:
.LBB6618:
.LBB6615:
.LBB6616:
	leaq	112(%rsp), %rax	#, tmp288
.LVL676:
	movq	%rax, 96(%rsp)	# tmp288, MEM[(struct _Alloc_hider *)&descriptor]._M_p
.LVL677:
.LEHB44:
.LBE6616:
.LBE6615:
.LBE6618:
	.loc 5 75 0
	call	_ZStlsISt11char_traitsIcEERSt13basic_ostreamIcT_ES5_PKc	#
.LVL678:
	.loc 5 76 0
	leaq	64(%rsp), %rsi	#, tmp638
	movl	$_ZSt3cin, %edi	#,
	call	_ZStrsIcSt11char_traitsIcESaIcEERSt13basic_istreamIT_T0_ES7_RNSt7__cxx1112basic_stringIS4_S5_T1_EE	#
.LVL679:
	movq	64(%rsp), %rsi	# MEM[(char * *)&file], D.98154
.LBB6619:
.LBB6620:
.LBB6621:
.LBB6622:
	.loc 3 109 0
	leaq	144(%rsp), %rax	#, tmp291
.LVL680:
.LBE6622:
.LBE6621:
.LBB6624:
.LBB6625:
.LBB6626:
.LBB6627:
	.loc 3 195 0
	leaq	128(%rsp), %rdi	#, tmp641
.LVL681:
.LBE6627:
.LBE6626:
.LBE6625:
.LBE6624:
.LBB6631:
.LBB6623:
	.loc 3 109 0
	movq	%rax, 128(%rsp)	# tmp291, MEM[(struct _Alloc_hider *)&D.86386]._M_p
.LVL682:
.LBE6623:
.LBE6631:
.LBB6632:
.LBB6630:
.LBB6629:
.LBB6628:
	.loc 3 195 0
	movq	%rsi, %rdx	# D.98154, D.98154
	addq	72(%rsp), %rdx	# MEM[(long unsigned int *)&file + 8B], D.98154
.LVL683:
	call	_ZNSt7__cxx1112basic_stringIcSt11char_traitsIcESaIcEE12_M_constructIPcEEvT_S7_St20forward_iterator_tag.isra.33	#
.LVL684:
.LEHE44:
.LBE6628:
.LBE6629:
.LBE6630:
.LBE6632:
.LBE6620:
.LBE6619:
	.loc 5 77 0 discriminator 1
	leaq	128(%rsp), %rdi	#, tmp642
.LVL685:
.LEHB45:
	call	_Z6readInNSt7__cxx1112basic_stringIcSt11char_traitsIcESaIcEEE	#
.LVL686:
.LEHE45:
	movq	128(%rsp), %rdi	# MEM[(char * *)&D.86386], D.98154
.LVL687:
.LBB6633:
.LBB6634:
.LBB6635:
	.loc 3 179 0
	leaq	144(%rsp), %rax	#, tmp297
	cmpq	%rax, %rdi	# tmp297, D.98154
	je	.L376	#,
.LVL688:
.LBB6636:
.LBB6637:
.LBB6638:
.LBB6639:
	.loc 10 110 0
	call	_ZdlPv	#
.LVL689:
.L376:
.LBE6639:
.LBE6638:
.LBE6637:
.LBE6636:
.LBE6635:
.LBE6634:
.LBE6633:
	.loc 5 78 0
	movl	$.LC18, %esi	#,
	movl	$_ZSt4cout, %edi	#,
.LEHB46:
	call	_ZStlsISt11char_traitsIcEERSt13basic_ostreamIcT_ES5_PKc	#
.LVL690:
	.loc 5 79 0
	leaq	63(%rsp), %rsi	#, tmp644
	movl	$_ZSt3cin, %edi	#,
	call	_ZStrsIcSt11char_traitsIcEERSt13basic_istreamIT_T0_ES6_RS3_	#
.LVL691:
.LBB6640:
.LBB6641:
.LBB6642:
.LBB6643:
.LBB6644:
.LBB6645:
.LBB6646:
	.loc 3 109 0
	leaq	176(%rsp), %rax	#, tmp633
.LBE6646:
.LBE6645:
.LBE6644:
.LBE6643:
.LBB6663:
.LBB6664:
.LBB6665:
.LBB6666:
.LBB6667:
.LBB6668:
.LBB6669:
.LBB6670:
	leaq	960(%rsp), %rbp	#, tmp631
.LBE6670:
.LBE6669:
.LBE6668:
.LBE6667:
.LBE6666:
.LBE6665:
.LBE6664:
.LBE6663:
.LBB6724:
.LBB6661:
.LBB6650:
.LBB6647:
	movq	%rax, 40(%rsp)	# tmp633, %sfp
.LBE6647:
.LBE6650:
.LBE6661:
.LBE6724:
.LBE6642:
	.loc 5 82 0
	movzbl	63(%rsp), %eax	# command, D.98155
	cmpb	$102, %al	#, D.98155
	je	.L378	#,
.LVL692:
.L583:
	cmpb	$108, %al	#, D.98155
	je	.L379	#,
	cmpb	$101, %al	#, D.98155
	je	.L581	#,
.L377:
.LVL693:
	movq	64(%rsp), %rsi	# MEM[(char * *)&file], D.98154
.LBE6641:
.LBE6640:
.LBB7470:
.LBB7471:
.LBB7472:
.LBB7473:
	.loc 3 109 0
	leaq	240(%rsp), %rax	#, tmp565
.LVL694:
.LBE7473:
.LBE7472:
.LBB7475:
.LBB7476:
.LBB7477:
.LBB7478:
	.loc 3 195 0
	leaq	224(%rsp), %rdi	#, tmp773
.LVL695:
.LBE7478:
.LBE7477:
.LBE7476:
.LBE7475:
.LBB7482:
.LBB7474:
	.loc 3 109 0
	movq	%rax, 224(%rsp)	# tmp565, MEM[(struct _Alloc_hider *)&D.86466]._M_p
.LVL696:
.LBE7474:
.LBE7482:
.LBB7483:
.LBB7481:
.LBB7480:
.LBB7479:
	.loc 3 195 0
	movq	%rsi, %rdx	# D.98154, D.98154
	addq	72(%rsp), %rdx	# MEM[(long unsigned int *)&file + 8B], D.98154
.LVL697:
	call	_ZNSt7__cxx1112basic_stringIcSt11char_traitsIcESaIcEE12_M_constructIPcEEvT_S7_St20forward_iterator_tag.isra.33	#
.LVL698:
.LEHE46:
.LBE7479:
.LBE7480:
.LBE7481:
.LBE7483:
.LBE7471:
.LBE7470:
	.loc 5 105 0 discriminator 1
	leaq	224(%rsp), %rdi	#, tmp774
.LVL699:
.LEHB47:
	call	_Z5writeNSt7__cxx1112basic_stringIcSt11char_traitsIcESaIcEEE	#
.LVL700:
.LEHE47:
	movq	224(%rsp), %rdi	# MEM[(char * *)&D.86466], D.98154
.LVL701:
.LBB7484:
.LBB7485:
.LBB7486:
	.loc 3 179 0
	leaq	240(%rsp), %rax	#, tmp571
	cmpq	%rax, %rdi	# tmp571, D.98154
	je	.L469	#,
.LVL702:
.LBB7487:
.LBB7488:
.LBB7489:
.LBB7490:
	.loc 10 110 0
	call	_ZdlPv	#
.LVL703:
.L469:
.LBE7490:
.LBE7489:
.LBE7488:
.LBE7487:
.LBE7486:
.LBE7485:
.LBE7484:
	.loc 5 106 0
	movl	$.LC19, %esi	#,
	movl	$_ZSt4cout, %edi	#,
.LEHB48:
	call	_ZStlsISt11char_traitsIcEERSt13basic_ostreamIcT_ES5_PKc	#
.LVL704:
	movq	96(%rsp), %rdi	# MEM[(char * *)&descriptor], D.98154
.LVL705:
.LBB7491:
.LBB7492:
.LBB7493:
.LBB7494:
	.loc 3 179 0
	leaq	112(%rsp), %rax	#, tmp573
	cmpq	%rax, %rdi	# tmp573, D.98154
	je	.L470	#,
.LVL706:
.LBB7495:
.LBB7496:
.LBB7497:
.LBB7498:
	.loc 10 110 0
	call	_ZdlPv	#
.LVL707:
.L470:
	movq	64(%rsp), %rdi	# MEM[(char * *)&file], D.98154
.LVL708:
.LBE7498:
.LBE7497:
.LBE7496:
.LBE7495:
.LBE7494:
.LBE7493:
.LBE7492:
.LBE7491:
.LBB7499:
.LBB7500:
.LBB7501:
	.loc 3 179 0
	leaq	80(%rsp), %rax	#, tmp575
	cmpq	%rax, %rdi	# tmp575, D.98154
	je	.L471	#,
.LVL709:
.LBB7502:
.LBB7503:
.LBB7504:
.LBB7505:
	.loc 10 110 0
	call	_ZdlPv	#
.LVL710:
.L471:
.LBE7505:
.LBE7504:
.LBE7503:
.LBE7502:
.LBE7501:
.LBE7500:
.LBE7499:
	.loc 5 108 0
	xorl	%eax, %eax	#
	movq	1016(%rsp), %rcx	# D.98162, tmp635
	xorq	%fs:40, %rcx	#, tmp635
	jne	.L582	#,
	addq	$1032, %rsp	#,
	.cfi_remember_state
	.cfi_def_cfa_offset 56
	popq	%rbx	#
	.cfi_def_cfa_offset 48
	popq	%rbp	#
	.cfi_def_cfa_offset 40
	popq	%r12	#
	.cfi_def_cfa_offset 32
	popq	%r13	#
	.cfi_def_cfa_offset 24
	popq	%r14	#
	.cfi_def_cfa_offset 16
	popq	%r15	#
	.cfi_def_cfa_offset 8
	ret
.LVL711:
	.p2align 4,,10
	.p2align 3
.L581:
	.cfi_restore_state
.LBB7506:
.LBB7463:
.LBB7458:
	.loc 5 86 0
	leaq	96(%rsp), %rsi	#, tmp648
.LVL712:
	movl	$_ZSt3cin, %edi	#,
	call	_ZStrsIcSt11char_traitsIcESaIcEERSt13basic_istreamIT_T0_ES7_RNSt7__cxx1112basic_stringIS4_S5_T1_EE	#
.LVL713:
	movq	96(%rsp), %rsi	# MEM[(char * *)&descriptor], D.98154
.LBB6725:
.LBB6662:
.LBB6651:
.LBB6648:
	.loc 3 109 0
	movq	40(%rsp), %rbx	# %sfp, tmp633
.LBE6648:
.LBE6651:
.LBB6652:
.LBB6653:
.LBB6654:
.LBB6655:
	.loc 3 195 0
	leaq	160(%rsp), %rdi	#, tmp651
.LVL714:
	movq	%rsi, %rdx	# D.98154, D.98154
	addq	104(%rsp), %rdx	# MEM[(long unsigned int *)&descriptor + 8B], D.98154
.LBE6655:
.LBE6654:
.LBE6653:
.LBE6652:
.LBB6659:
.LBB6649:
	.loc 3 109 0
	movq	%rbx, 160(%rsp)	# tmp633, MEM[(struct _Alloc_hider *)&D.86391]._M_p
.LVL715:
.LBE6649:
.LBE6659:
.LBB6660:
.LBB6658:
.LBB6657:
.LBB6656:
	.loc 3 195 0
	call	_ZNSt7__cxx1112basic_stringIcSt11char_traitsIcESaIcEE12_M_constructIPcEEvT_S7_St20forward_iterator_tag.isra.33	#
.LVL716:
.LEHE48:
.LBE6656:
.LBE6657:
.LBE6658:
.LBE6660:
.LBE6662:
.LBE6725:
	.loc 5 87 0 discriminator 1
	leaq	160(%rsp), %rdi	#, tmp652
.LVL717:
.LEHB49:
	call	_Z5enterNSt7__cxx1112basic_stringIcSt11char_traitsIcESaIcEEE	#
.LVL718:
.LEHE49:
	movq	160(%rsp), %rdi	# MEM[(char * *)&D.86391], D.98154
.LVL719:
.LBB6726:
.LBB6727:
.LBB6728:
	.loc 3 179 0
	cmpq	%rbx, %rdi	# tmp633, D.98154
	je	.L382	#,
.LVL720:
.L567:
.LBE6728:
.LBE6727:
.LBE6726:
.LBB6729:
.LBB6730:
.LBB6731:
.LBB6732:
.LBB6733:
.LBB6734:
.LBB6735:
.LBB6736:
.LBB6737:
	.loc 10 110 0
	call	_ZdlPv	#
.LVL721:
.L382:
.LBE6737:
.LBE6736:
.LBE6735:
.LBE6734:
.LBE6733:
.LBE6732:
.LBE6731:
.LBE6730:
.LBE6729:
.LBE7458:
.LBE7463:
.LBB7464:
.LBB7465:
	.loc 6 561 0
	movl	$9, %edx	#,
	movl	$.LC18, %esi	#,
	movl	$_ZSt4cout, %edi	#,
.LEHB50:
	call	_ZSt16__ostream_insertIcSt11char_traitsIcEERSt13basic_ostreamIT_T0_ES6_PKS3_l	#
.LVL722:
.LBE7465:
.LBE7464:
	.loc 5 102 0
	leaq	63(%rsp), %rsi	#, tmp770
	movl	$_ZSt3cin, %edi	#,
	call	_ZStrsIcSt11char_traitsIcEERSt13basic_istreamIT_T0_ES6_RS3_	#
.LVL723:
.LBB7466:
	.loc 5 82 0
	movzbl	63(%rsp), %eax	# command, D.98155
	cmpb	$102, %al	#, D.98155
	jne	.L583	#,
.L378:
.LBB7459:
.LBB7441:
	.loc 5 92 0
	leaq	96(%rsp), %rsi	#, tmp654
.LVL724:
	movl	$_ZSt3cin, %edi	#,
	call	_ZStrsIcSt11char_traitsIcESaIcEERSt13basic_istreamIT_T0_ES7_RNSt7__cxx1112basic_stringIS4_S5_T1_EE	#
.LVL725:
	movq	96(%rsp), %rsi	# MEM[(char * *)&descriptor], D.98154
.LBB6741:
.LBB6742:
.LBB6743:
.LBB6744:
	.loc 3 109 0
	leaq	208(%rsp), %rax	#, tmp311
.LVL726:
.LBE6744:
.LBE6743:
.LBB6746:
.LBB6747:
.LBB6748:
.LBB6749:
	.loc 3 195 0
	leaq	192(%rsp), %rdi	#, tmp657
.LVL727:
.LBE6749:
.LBE6748:
.LBE6747:
.LBE6746:
.LBB6753:
.LBB6745:
	.loc 3 109 0
	movq	%rax, 192(%rsp)	# tmp311, MEM[(struct _Alloc_hider *)&D.86413]._M_p
.LVL728:
.LBE6745:
.LBE6753:
.LBB6754:
.LBB6752:
.LBB6751:
.LBB6750:
	.loc 3 195 0
	movq	%rsi, %rdx	# D.98154, D.98154
	addq	104(%rsp), %rdx	# MEM[(long unsigned int *)&descriptor + 8B], D.98154
.LVL729:
	call	_ZNSt7__cxx1112basic_stringIcSt11char_traitsIcESaIcEE12_M_constructIPcEEvT_S7_St20forward_iterator_tag.isra.33	#
.LVL730:
.LEHE50:
	movq	192(%rsp), %rsi	# MEM[(char * *)&D.86413], D.98154
.LBE6750:
.LBE6751:
.LBE6752:
.LBE6754:
.LBE6742:
.LBE6741:
.LBB6755:
.LBB6756:
.LBB6757:
	.loc 16 741 0
	movq	entry+8(%rip), %rax	# MEM[(struct info * const &)&entry + 8], D.98156
.LBE6757:
.LBE6756:
.LBE6755:
.LBB6760:
.LBB6761:
.LBB6762:
.LBB6763:
.LBB6764:
.LBB6765:
.LBB6766:
.LBB6767:
.LBB6768:
	.loc 3 195 0
	leaq	256(%rsp), %rdi	#, tmp661
.LBE6768:
.LBE6767:
.LBE6766:
.LBE6765:
.LBE6764:
.LBE6763:
.LBE6762:
.LBE6761:
.LBE6760:
.LBB7425:
.LBB7426:
.LBB7427:
	.loc 16 741 0
	movq	entry(%rip), %rbx	# MEM[(struct info * const &)&entry], __first$_M_current
.LBE7427:
.LBE7426:
.LBE7425:
.LBB7428:
.LBB7418:
.LBB6783:
.LBB6781:
.LBB6779:
.LBB6775:
.LBB6773:
.LBB6771:
.LBB6769:
	.loc 3 195 0
	movq	%rsi, %rdx	# D.98154, D.98154
	addq	200(%rsp), %rdx	# MEM[(long unsigned int *)&D.86413 + 8B], D.98154
.LBE6769:
.LBE6771:
.LBE6773:
.LBE6775:
.LBE6779:
.LBE6781:
.LBE6783:
.LBE7418:
.LBE7428:
.LBB7429:
.LBB6759:
.LBB6758:
	.loc 16 741 0
	movq	%rax, 32(%rsp)	# D.98156, %sfp
.LVL731:
.LBE6758:
.LBE6759:
.LBE7429:
.LBB7430:
.LBB7419:
.LBB6784:
.LBB6782:
.LBB6780:
.LBB6776:
.LBB6777:
	.loc 3 109 0
	leaq	272(%rsp), %rax	#, tmp318
.LVL732:
	movq	%rax, 256(%rsp)	# tmp318, MEM[(struct _Alloc_hider *)&D.97000]._M_p
.LVL733:
.LEHB51:
.LBE6777:
.LBE6776:
.LBB6778:
.LBB6774:
.LBB6772:
.LBB6770:
	.loc 3 195 0
	call	_ZNSt7__cxx1112basic_stringIcSt11char_traitsIcESaIcEE12_M_constructIPcEEvT_S7_St20forward_iterator_tag.isra.33	#
.LVL734:
.LEHE51:
	movq	256(%rsp), %rsi	# MEM[(char * *)&D.97000], D.98154
.LBE6770:
.LBE6772:
.LBE6774:
.LBE6778:
.LBE6780:
.LBE6782:
.LBE6784:
.LBB6785:
.LBB6786:
.LBB6787:
.LBB6788:
.LBB6789:
.LBB6790:
.LBB6791:
	.loc 3 109 0
	leaq	336(%rsp), %rax	#, tmp323
.LVL735:
.LBE6791:
.LBE6790:
.LBB6793:
.LBB6794:
.LBB6795:
.LBB6796:
	.loc 3 195 0
	leaq	320(%rsp), %rdi	#, tmp664
.LVL736:
.LBE6796:
.LBE6795:
.LBE6794:
.LBE6793:
.LBB6800:
.LBB6792:
	.loc 3 109 0
	movq	%rax, 320(%rsp)	# tmp323, MEM[(struct _Alloc_hider *)&D.97086]._M_p
.LVL737:
.LBE6792:
.LBE6800:
.LBB6801:
.LBB6799:
.LBB6798:
.LBB6797:
	.loc 3 195 0
	movq	%rsi, %rdx	# D.98154, D.98154
	addq	264(%rsp), %rdx	# MEM[(long unsigned int *)&D.97000 + 8B], D.98154
.LVL738:
.LEHB52:
	call	_ZNSt7__cxx1112basic_stringIcSt11char_traitsIcESaIcEE12_M_constructIPcEEvT_S7_St20forward_iterator_tag.isra.33	#
.LVL739:
.LEHE52:
	movq	320(%rsp), %rsi	# MEM[(char * *)&D.97086], D.98154
.LBE6797:
.LBE6798:
.LBE6799:
.LBE6801:
.LBE6789:
.LBE6788:
.LBE6787:
.LBB6802:
.LBB6803:
.LBB6804:
.LBB6805:
.LBB6806:
.LBB6807:
	.loc 3 109 0
	leaq	304(%rsp), %rax	#, tmp328
.LVL740:
.LBE6807:
.LBE6806:
.LBB6809:
.LBB6810:
.LBB6811:
.LBB6812:
	.loc 3 195 0
	leaq	288(%rsp), %rdi	#, tmp667
.LVL741:
.LBE6812:
.LBE6811:
.LBE6810:
.LBE6809:
.LBB6816:
.LBB6808:
	.loc 3 109 0
	movq	%rax, 288(%rsp)	# tmp328, MEM[(struct _Alloc_hider *)&D.97001]._M_p
.LVL742:
.LBE6808:
.LBE6816:
.LBB6817:
.LBB6815:
.LBB6814:
.LBB6813:
	.loc 3 195 0
	movq	%rsi, %rdx	# D.98154, D.98154
	addq	328(%rsp), %rdx	# MEM[(long unsigned int *)&D.97086 + 8B], D.98154
.LVL743:
.LEHB53:
	call	_ZNSt7__cxx1112basic_stringIcSt11char_traitsIcESaIcEE12_M_constructIPcEEvT_S7_St20forward_iterator_tag.isra.33	#
.LVL744:
.LEHE53:
	movq	320(%rsp), %rdi	# MEM[(char * *)&D.97086], D.98154
.LVL745:
.LBE6813:
.LBE6814:
.LBE6815:
.LBE6817:
.LBE6805:
.LBE6804:
.LBE6803:
.LBE6802:
.LBB6818:
.LBB6819:
.LBB6820:
.LBB6821:
	.loc 3 179 0
	leaq	336(%rsp), %rax	#, tmp333
	cmpq	%rax, %rdi	# tmp333, D.98154
	je	.L383	#,
.LVL746:
.LBB6822:
.LBB6823:
.LBB6824:
.LBB6825:
	.loc 10 110 0
	call	_ZdlPv	#
.LVL747:
.L383:
	movq	288(%rsp), %rsi	# MEM[(char * *)&D.97001], D.98154
.LBE6825:
.LBE6824:
.LBE6823:
.LBE6822:
.LBE6821:
.LBE6820:
.LBE6819:
.LBE6818:
.LBE6786:
.LBE6785:
.LBB6831:
.LBB6832:
.LBB6833:
.LBB6834:
.LBB6835:
.LBB6836:
.LBB6837:
.LBB6838:
	.loc 3 109 0
	leaq	368(%rsp), %rax	#, tmp335
.LVL748:
.LBE6838:
.LBE6837:
.LBB6840:
.LBB6841:
.LBB6842:
.LBB6843:
	.loc 3 195 0
	leaq	352(%rsp), %rdi	#, tmp671
.LVL749:
.LBE6843:
.LBE6842:
.LBE6841:
.LBE6840:
.LBB6847:
.LBB6839:
	.loc 3 109 0
	movq	%rax, 352(%rsp)	# tmp335, MEM[(struct _Alloc_hider *)&D.97150]._M_p
.LVL750:
.LBE6839:
.LBE6847:
.LBB6848:
.LBB6846:
.LBB6845:
.LBB6844:
	.loc 3 195 0
	movq	%rsi, %rdx	# D.98154, D.98154
	addq	296(%rsp), %rdx	# MEM[(long unsigned int *)&D.97001 + 8B], D.98154
.LVL751:
.LEHB54:
	call	_ZNSt7__cxx1112basic_stringIcSt11char_traitsIcESaIcEE12_M_constructIPcEEvT_S7_St20forward_iterator_tag.isra.33	#
.LVL752:
.LEHE54:
.LBE6844:
.LBE6845:
.LBE6846:
.LBE6848:
.LBE6836:
.LBE6835:
.LBE6834:
.LBE6833:
.LBB6849:
.LBB6850:
	.loc 17 116 0
	movq	32(%rsp), %rax	# %sfp, D.98158
	movabsq	$-8198552921648689607, %rdx	#, tmp349
	subq	%rbx, %rax	# __first$_M_current, D.98158
	sarq	$3, %rax	#, tmp347
	imulq	%rdx, %rax	# tmp349, D.98158
	sarq	$2, %rax	#, __trip_count
.LVL753:
	.loc 17 118 0
	testq	%rax, %rax	# __trip_count
	jle	.L388	#,
	leaq	(%rax,%rax,8), %r14	#, D.98161
.LBB6851:
.LBB6852:
.LBB6853:
.LBB6854:
.LBB6855:
.LBB6856:
.LBB6857:
.LBB6858:
	.loc 3 109 0
	leaq	480(%rsp), %r12	#, tmp624
.LBE6858:
.LBE6857:
.LBE6856:
.LBE6855:
.LBE6854:
.LBE6853:
.LBE6852:
.LBE6851:
.LBB6916:
.LBB6917:
.LBB6918:
.LBB6919:
.LBB6920:
.LBB6921:
.LBB6922:
.LBB6923:
	leaq	560(%rsp), %r13	#, tmp626
	salq	$5, %r14	#, tmp353
	leaq	(%rbx,%r14), %rax	#, D.98156
.LVL754:
	movq	%rax, 8(%rsp)	# D.98156, %sfp
	jmp	.L422	#
.LVL755:
	.p2align 4,,10
	.p2align 3
.L587:
.LBE6923:
.LBE6922:
.LBE6921:
.LBE6920:
.LBE6919:
.LBE6918:
.LBE6917:
.LBE6916:
.LBB6981:
.LBB6982:
.LBB6983:
.LBB6984:
.LBB6985:
.LBB6986:
.LBB6987:
.LBB6988:
	.loc 4 262 0
	movq	352(%rsp), %rsi	# MEM[(char * *)&D.97150],
	movq	%r15, %rdi	# D.98154,
	movq	%r9, 24(%rsp)	# D.98157, %sfp
	movq	%rcx, 16(%rsp)	# D.98157, %sfp
	call	memcmp	#
.LVL756:
.LBE6988:
.LBE6987:
	.loc 3 2319 0
	testl	%eax, %eax	# __r
.LBB6991:
.LBB6989:
	.loc 4 262 0
	movl	%eax, %r14d	#, __r
.LVL757:
.LBE6989:
.LBE6991:
	.loc 3 2319 0
	movq	16(%rsp), %rcx	# %sfp, D.98157
	movq	24(%rsp), %r9	# %sfp, D.98157
	je	.L389	#,
.LVL758:
.L394:
	movq	416(%rsp), %rdi	# MEM[(char * *)&D.97181 + 32B], D.98154
.LVL759:
.LBE6986:
.LBE6985:
.LBE6984:
.LBE6983:
.LBB6998:
.LBB6999:
.LBB7000:
.LBB7001:
.LBB7002:
	.loc 3 179 0
	leaq	432(%rsp), %rdx	#, tmp375
	cmpq	%rdx, %rdi	# tmp375, D.98154
	je	.L395	#,
.LVL760:
.LBB7003:
.LBB7004:
.LBB7005:
.LBB7006:
	.loc 10 110 0
	call	_ZdlPv	#
.LVL761:
	movq	384(%rsp), %r15	# MEM[(char * *)&D.97181], D.98154
.LVL762:
.L395:
.LBE7006:
.LBE7005:
.LBE7004:
.LBE7003:
.LBE7002:
.LBE7001:
.LBE7000:
.LBE6999:
.LBB7007:
.LBB7008:
.LBB7009:
	.loc 3 179 0
	leaq	400(%rsp), %rdx	#, tmp377
	cmpq	%rdx, %r15	# tmp377, D.98154
	je	.L396	#,
.LVL763:
.LBB7010:
.LBB7011:
.LBB7012:
.LBB7013:
	.loc 10 110 0
	movq	%r15, %rdi	# D.98154,
	call	_ZdlPv	#
.LVL764:
.L396:
.LBE7013:
.LBE7012:
.LBE7011:
.LBE7010:
.LBE7009:
.LBE7008:
.LBE7007:
.LBE6998:
.LBE6982:
.LBE6981:
	.loc 17 120 0
	testl	%r14d, %r14d	# __r
	je	.L496	#,
.LVL765:
.LBB7047:
.LBB6913:
.LBB6881:
.LBB6879:
.LBB6866:
.LBB6865:
.LBB6860:
.LBB6859:
	.loc 3 109 0
	movq	%r12, 464(%rsp)	# tmp624, MEM[(struct _Alloc_hider *)&D.97293]._M_p
.LVL766:
	movq	72(%rbx), %rsi	# MEM[base: __first$_M_current_202, offset: 72B], D.98154
.LVL767:
.LBE6859:
.LBE6860:
.LBB6861:
.LBB6862:
.LBB6863:
.LBB6864:
	.loc 3 195 0
	leaq	464(%rsp), %rdi	#, tmp689
.LVL768:
	movq	%rsi, %rdx	# D.98154, D.98154
	addq	80(%rbx), %rdx	# MEM[base: __first$_M_current_202, offset: 80B], D.98154
.LVL769:
.LEHB55:
	call	_ZNSt7__cxx1112basic_stringIcSt11char_traitsIcESaIcEE12_M_constructIPcEEvT_S7_St20forward_iterator_tag.isra.33	#
.LVL770:
.LEHE55:
.LBE6864:
.LBE6863:
.LBE6862:
.LBE6861:
.LBE6865:
.LBE6866:
.LBB6867:
.LBB6868:
.LBB6869:
.LBB6870:
	.loc 3 109 0
	leaq	512(%rsp), %rax	#, tmp384
.LVL771:
	movq	%rax, 496(%rsp)	# tmp384, MEM[(struct _Alloc_hider *)&D.97293 + 32B]._M_p
.LVL772:
	movq	104(%rbx), %rsi	# MEM[base: __first$_M_current_202, offset: 104B], D.98154
.LVL773:
.LBE6870:
.LBE6869:
.LBB6871:
.LBB6872:
.LBB6873:
.LBB6874:
	.loc 3 195 0
	leaq	464(%rsp), %rax	#, tmp692
.LVL774:
	leaq	32(%rax), %rdi	#, tmp388
	movq	%rsi, %rdx	# D.98154, D.98154
	addq	112(%rbx), %rdx	# MEM[base: __first$_M_current_202, offset: 112B], D.98154
.LVL775:
.LEHB56:
	call	_ZNSt7__cxx1112basic_stringIcSt11char_traitsIcESaIcEE12_M_constructIPcEEvT_S7_St20forward_iterator_tag.isra.33	#
.LVL776:
.LEHE56:
	movq	472(%rsp), %rcx	# MEM[(long unsigned int *)&D.97293 + 8B], D.98157
	movq	360(%rsp), %r9	# MEM[(long unsigned int *)&D.97150 + 8B], D.98157
.LBE6874:
.LBE6873:
.LBE6872:
.LBE6871:
.LBE6868:
.LBE6867:
	.loc 5 9 0
	movl	136(%rbx), %eax	# MEM[base: __first$_M_current_202, offset: 136B], D.98159
	movq	464(%rsp), %r15	# MEM[(char * *)&D.97293], D.98154
	cmpq	%r9, %rcx	# D.98157, D.98157
	movq	%r9, %rdx	# D.98157, __len
	cmovbe	%rcx, %rdx	# D.98157,, __len
	movl	%eax, 528(%rsp)	# D.98159, D.97293.qnty
.LVL777:
.LBE6879:
.LBE6881:
.LBB6882:
.LBB6883:
.LBB6884:
.LBB6885:
.LBB6886:
.LBB6887:
	.loc 4 260 0
	testq	%rdx, %rdx	# __len
	je	.L398	#,
	.loc 4 262 0
	movq	352(%rsp), %rsi	# MEM[(char * *)&D.97150],
	movq	%r15, %rdi	# D.98154,
	movq	%r9, 24(%rsp)	# D.98157, %sfp
	movq	%rcx, 16(%rsp)	# D.98157, %sfp
	call	memcmp	#
.LVL778:
.LBE6887:
.LBE6886:
	.loc 3 2319 0
	testl	%eax, %eax	# __r
.LBB6889:
.LBB6888:
	.loc 4 262 0
	movl	%eax, %r14d	#, __r
.LVL779:
.LBE6888:
.LBE6889:
	.loc 3 2319 0
	movq	16(%rsp), %rcx	# %sfp, D.98157
	movq	24(%rsp), %r9	# %sfp, D.98157
	je	.L398	#,
.LVL780:
.L402:
	movq	496(%rsp), %rdi	# MEM[(char * *)&D.97293 + 32B], D.98154
.LVL781:
.LBE6885:
.LBE6884:
.LBE6883:
.LBE6882:
.LBB6895:
.LBB6896:
.LBB6897:
.LBB6898:
.LBB6899:
	.loc 3 179 0
	leaq	512(%rsp), %rdx	#, tmp397
	cmpq	%rdx, %rdi	# tmp397, D.98154
	je	.L403	#,
.LVL782:
.LBB6900:
.LBB6901:
.LBB6902:
.LBB6903:
	.loc 10 110 0
	call	_ZdlPv	#
.LVL783:
	movq	464(%rsp), %r15	# MEM[(char * *)&D.97293], D.98154
.LVL784:
.L403:
.LBE6903:
.LBE6902:
.LBE6901:
.LBE6900:
.LBE6899:
.LBE6898:
.LBE6897:
.LBE6896:
.LBB6904:
.LBB6905:
.LBB6906:
	.loc 3 179 0
	cmpq	%r12, %r15	# tmp624, D.98154
	je	.L404	#,
.LVL785:
.LBB6907:
.LBB6908:
.LBB6909:
.LBB6910:
	.loc 10 110 0
	movq	%r15, %rdi	# D.98154,
	call	_ZdlPv	#
.LVL786:
.L404:
.LBE6910:
.LBE6909:
.LBE6908:
.LBE6907:
.LBE6906:
.LBE6905:
.LBE6904:
.LBE6895:
.LBE6913:
.LBE7047:
	.loc 17 124 0
	testl	%r14d, %r14d	# __r
	je	.L584	#,
.LVL787:
.LBB7048:
.LBB6978:
.LBB6946:
.LBB6944:
.LBB6931:
.LBB6930:
.LBB6925:
.LBB6924:
	.loc 3 109 0
	movq	%r13, 544(%rsp)	# tmp626, MEM[(struct _Alloc_hider *)&D.97405]._M_p
.LVL788:
	movq	144(%rbx), %rsi	# MEM[base: __first$_M_current_202, offset: 144B], D.98154
.LVL789:
.LBE6924:
.LBE6925:
.LBB6926:
.LBB6927:
.LBB6928:
.LBB6929:
	.loc 3 195 0
	leaq	544(%rsp), %rdi	#, tmp699
.LVL790:
	movq	%rsi, %rdx	# D.98154, D.98154
	addq	152(%rbx), %rdx	# MEM[base: __first$_M_current_202, offset: 152B], D.98154
.LVL791:
.LEHB57:
	call	_ZNSt7__cxx1112basic_stringIcSt11char_traitsIcESaIcEE12_M_constructIPcEEvT_S7_St20forward_iterator_tag.isra.33	#
.LVL792:
.LEHE57:
.LBE6929:
.LBE6928:
.LBE6927:
.LBE6926:
.LBE6930:
.LBE6931:
.LBB6932:
.LBB6933:
.LBB6934:
.LBB6935:
	.loc 3 109 0
	leaq	592(%rsp), %rax	#, tmp406
.LVL793:
	movq	%rax, 576(%rsp)	# tmp406, MEM[(struct _Alloc_hider *)&D.97405 + 32B]._M_p
.LVL794:
	movq	176(%rbx), %rsi	# MEM[base: __first$_M_current_202, offset: 176B], D.98154
.LVL795:
.LBE6935:
.LBE6934:
.LBB6936:
.LBB6937:
.LBB6938:
.LBB6939:
	.loc 3 195 0
	leaq	544(%rsp), %rax	#, tmp702
.LVL796:
	leaq	32(%rax), %rdi	#, tmp410
	movq	%rsi, %rdx	# D.98154, D.98154
	addq	184(%rbx), %rdx	# MEM[base: __first$_M_current_202, offset: 184B], D.98154
.LVL797:
.LEHB58:
	call	_ZNSt7__cxx1112basic_stringIcSt11char_traitsIcESaIcEE12_M_constructIPcEEvT_S7_St20forward_iterator_tag.isra.33	#
.LVL798:
.LEHE58:
	movq	552(%rsp), %rcx	# MEM[(long unsigned int *)&D.97405 + 8B], D.98157
	movq	360(%rsp), %r9	# MEM[(long unsigned int *)&D.97150 + 8B], D.98157
.LBE6939:
.LBE6938:
.LBE6937:
.LBE6936:
.LBE6933:
.LBE6932:
	.loc 5 9 0
	movl	208(%rbx), %eax	# MEM[base: __first$_M_current_202, offset: 208B], D.98159
	movq	544(%rsp), %r15	# MEM[(char * *)&D.97405], D.98154
	cmpq	%r9, %rcx	# D.98157, D.98157
	movq	%r9, %rdx	# D.98157, __len
	cmovbe	%rcx, %rdx	# D.98157,, __len
	movl	%eax, 608(%rsp)	# D.98159, D.97405.qnty
.LVL799:
.LBE6944:
.LBE6946:
.LBB6947:
.LBB6948:
.LBB6949:
.LBB6950:
.LBB6951:
.LBB6952:
	.loc 4 260 0
	testq	%rdx, %rdx	# __len
	je	.L406	#,
	.loc 4 262 0
	movq	352(%rsp), %rsi	# MEM[(char * *)&D.97150],
	movq	%r15, %rdi	# D.98154,
	movq	%r9, 24(%rsp)	# D.98157, %sfp
	movq	%rcx, 16(%rsp)	# D.98157, %sfp
	call	memcmp	#
.LVL800:
.LBE6952:
.LBE6951:
	.loc 3 2319 0
	testl	%eax, %eax	# __r
.LBB6954:
.LBB6953:
	.loc 4 262 0
	movl	%eax, %r14d	#, __r
.LVL801:
.LBE6953:
.LBE6954:
	.loc 3 2319 0
	movq	16(%rsp), %rcx	# %sfp, D.98157
	movq	24(%rsp), %r9	# %sfp, D.98157
	je	.L406	#,
.LVL802:
.L410:
	movq	576(%rsp), %rdi	# MEM[(char * *)&D.97405 + 32B], D.98154
.LVL803:
.LBE6950:
.LBE6949:
.LBE6948:
.LBE6947:
.LBB6960:
.LBB6961:
.LBB6962:
.LBB6963:
.LBB6964:
	.loc 3 179 0
	leaq	592(%rsp), %rdx	#, tmp419
	cmpq	%rdx, %rdi	# tmp419, D.98154
	je	.L411	#,
.LVL804:
.LBB6965:
.LBB6966:
.LBB6967:
.LBB6968:
	.loc 10 110 0
	call	_ZdlPv	#
.LVL805:
	movq	544(%rsp), %r15	# MEM[(char * *)&D.97405], D.98154
.LVL806:
.L411:
.LBE6968:
.LBE6967:
.LBE6966:
.LBE6965:
.LBE6964:
.LBE6963:
.LBE6962:
.LBE6961:
.LBB6969:
.LBB6970:
.LBB6971:
	.loc 3 179 0
	cmpq	%r13, %r15	# tmp626, D.98154
	je	.L412	#,
.LVL807:
.LBB6972:
.LBB6973:
.LBB6974:
.LBB6975:
	.loc 10 110 0
	movq	%r15, %rdi	# D.98154,
	call	_ZdlPv	#
.LVL808:
.L412:
.LBE6975:
.LBE6974:
.LBE6973:
.LBE6972:
.LBE6971:
.LBE6970:
.LBE6969:
.LBE6960:
.LBE6978:
.LBE7048:
	.loc 17 128 0
	testl	%r14d, %r14d	# __r
	je	.L585	#,
.LVL809:
.LBB7049:
.LBB7050:
.LBB7051:
.LBB7052:
.LBB7053:
.LBB7054:
.LBB7055:
.LBB7056:
	.loc 3 109 0
	leaq	640(%rsp), %rax	#, tmp423
.LVL810:
.LBE7056:
.LBE7055:
.LBB7058:
.LBB7059:
.LBB7060:
.LBB7061:
	.loc 3 195 0
	leaq	624(%rsp), %rdi	#, tmp710
.LVL811:
.LBE7061:
.LBE7060:
.LBE7059:
.LBE7058:
.LBB7065:
.LBB7057:
	.loc 3 109 0
	movq	%rax, 624(%rsp)	# tmp423, MEM[(struct _Alloc_hider *)&D.97517]._M_p
.LVL812:
	movq	216(%rbx), %rsi	# MEM[base: __first$_M_current_202, offset: 216B], D.98154
.LVL813:
.LBE7057:
.LBE7065:
.LBB7066:
.LBB7064:
.LBB7063:
.LBB7062:
	.loc 3 195 0
	movq	%rsi, %rdx	# D.98154, D.98154
	addq	224(%rbx), %rdx	# MEM[base: __first$_M_current_202, offset: 224B], D.98154
.LVL814:
.LEHB59:
	call	_ZNSt7__cxx1112basic_stringIcSt11char_traitsIcESaIcEE12_M_constructIPcEEvT_S7_St20forward_iterator_tag.isra.33	#
.LVL815:
.LEHE59:
.LBE7062:
.LBE7063:
.LBE7064:
.LBE7066:
.LBE7054:
.LBE7053:
.LBB7067:
.LBB7068:
.LBB7069:
.LBB7070:
	.loc 3 109 0
	leaq	672(%rsp), %rax	#, tmp428
.LVL816:
	movq	%rax, 656(%rsp)	# tmp428, MEM[(struct _Alloc_hider *)&D.97517 + 32B]._M_p
.LVL817:
	movq	248(%rbx), %rsi	# MEM[base: __first$_M_current_202, offset: 248B], D.98154
.LVL818:
.LBE7070:
.LBE7069:
.LBB7071:
.LBB7072:
.LBB7073:
.LBB7074:
	.loc 3 195 0
	leaq	624(%rsp), %rax	#, tmp713
.LVL819:
	leaq	32(%rax), %rdi	#, tmp432
	movq	%rsi, %rdx	# D.98154, D.98154
	addq	256(%rbx), %rdx	# MEM[base: __first$_M_current_202, offset: 256B], D.98154
.LVL820:
.LEHB60:
	call	_ZNSt7__cxx1112basic_stringIcSt11char_traitsIcESaIcEE12_M_constructIPcEEvT_S7_St20forward_iterator_tag.isra.33	#
.LVL821:
.LEHE60:
	movq	632(%rsp), %rcx	# MEM[(long unsigned int *)&D.97517 + 8B], D.98157
	movq	360(%rsp), %r9	# MEM[(long unsigned int *)&D.97150 + 8B], D.98157
.LBE7074:
.LBE7073:
.LBE7072:
.LBE7071:
.LBE7068:
.LBE7067:
	.loc 5 9 0
	movl	280(%rbx), %eax	# MEM[base: __first$_M_current_202, offset: 280B], D.98159
	movq	624(%rsp), %r14	# MEM[(char * *)&D.97517], D.98154
	cmpq	%r9, %rcx	# D.98157, D.98157
	movq	%r9, %rdx	# D.98157, __len
	cmovbe	%rcx, %rdx	# D.98157,, __len
	movl	%eax, 688(%rsp)	# D.98159, D.97517.qnty
.LVL822:
.LBE7052:
.LBE7051:
.LBB7080:
.LBB7081:
.LBB7082:
.LBB7083:
.LBB7084:
.LBB7085:
	.loc 4 260 0
	testq	%rdx, %rdx	# __len
	je	.L414	#,
	.loc 4 262 0
	movq	352(%rsp), %rsi	# MEM[(char * *)&D.97150],
	movq	%r14, %rdi	# D.98154,
	movq	%r9, 24(%rsp)	# D.98157, %sfp
	movq	%rcx, 16(%rsp)	# D.98157, %sfp
	call	memcmp	#
.LVL823:
.LBE7085:
.LBE7084:
	.loc 3 2319 0
	testl	%eax, %eax	# __r
.LBB7087:
.LBB7086:
	.loc 4 262 0
	movl	%eax, %r15d	#, __r
.LVL824:
.LBE7086:
.LBE7087:
	.loc 3 2319 0
	movq	16(%rsp), %rcx	# %sfp, D.98157
	movq	24(%rsp), %r9	# %sfp, D.98157
	je	.L414	#,
.LVL825:
.L418:
	movq	656(%rsp), %rdi	# MEM[(char * *)&D.97517 + 32B], D.98154
.LVL826:
.LBE7083:
.LBE7082:
.LBE7081:
.LBE7080:
.LBB7093:
.LBB7094:
.LBB7095:
.LBB7096:
.LBB7097:
	.loc 3 179 0
	leaq	672(%rsp), %rdx	#, tmp441
	cmpq	%rdx, %rdi	# tmp441, D.98154
	je	.L419	#,
.LVL827:
.LBB7098:
.LBB7099:
.LBB7100:
.LBB7101:
	.loc 10 110 0
	call	_ZdlPv	#
.LVL828:
	movq	624(%rsp), %r14	# MEM[(char * *)&D.97517], D.98154
.LVL829:
.L419:
.LBE7101:
.LBE7100:
.LBE7099:
.LBE7098:
.LBE7097:
.LBE7096:
.LBE7095:
.LBE7094:
.LBB7102:
.LBB7103:
.LBB7104:
	.loc 3 179 0
	leaq	640(%rsp), %rdx	#, tmp443
	cmpq	%rdx, %r14	# tmp443, D.98154
	je	.L420	#,
.LVL830:
.LBB7105:
.LBB7106:
.LBB7107:
.LBB7108:
	.loc 10 110 0
	movq	%r14, %rdi	# D.98154,
	call	_ZdlPv	#
.LVL831:
.L420:
.LBE7108:
.LBE7107:
.LBE7106:
.LBE7105:
.LBE7104:
.LBE7103:
.LBE7102:
.LBE7093:
.LBE7050:
.LBE7049:
	.loc 17 132 0
	testl	%r15d, %r15d	# __r
	je	.L586	#,
.LVL832:
	addq	$288, %rbx	#, __first$_M_current
.LVL833:
	.loc 17 118 0
	cmpq	8(%rsp), %rbx	# %sfp, __first$_M_current
	je	.L388	#,
.LVL834:
.L422:
.LBB7113:
.LBB7045:
.LBB7014:
.LBB7015:
.LBB7016:
.LBB7017:
.LBB7018:
.LBB7019:
	.loc 3 109 0
	leaq	400(%rsp), %rax	#, tmp355
.LVL835:
.LBE7019:
.LBE7018:
.LBB7021:
.LBB7022:
.LBB7023:
.LBB7024:
	.loc 3 195 0
	leaq	384(%rsp), %rdi	#, tmp679
.LVL836:
.LBE7024:
.LBE7023:
.LBE7022:
.LBE7021:
.LBB7028:
.LBB7020:
	.loc 3 109 0
	movq	%rax, 384(%rsp)	# tmp355, MEM[(struct _Alloc_hider *)&D.97181]._M_p
.LVL837:
	movq	(%rbx), %rsi	# MEM[base: __first$_M_current_202, offset: 0B], D.98154
.LVL838:
.LBE7020:
.LBE7028:
.LBB7029:
.LBB7027:
.LBB7026:
.LBB7025:
	.loc 3 195 0
	movq	%rsi, %rdx	# D.98154, D.98154
	addq	8(%rbx), %rdx	# MEM[base: __first$_M_current_202, offset: 8B], D.98154
.LVL839:
.LEHB61:
	call	_ZNSt7__cxx1112basic_stringIcSt11char_traitsIcESaIcEE12_M_constructIPcEEvT_S7_St20forward_iterator_tag.isra.33	#
.LVL840:
.LEHE61:
.LBE7025:
.LBE7026:
.LBE7027:
.LBE7029:
.LBE7017:
.LBE7016:
.LBB7030:
.LBB7031:
.LBB7032:
.LBB7033:
	.loc 3 109 0
	leaq	432(%rsp), %rax	#, tmp360
.LVL841:
	movq	%rax, 416(%rsp)	# tmp360, MEM[(struct _Alloc_hider *)&D.97181 + 32B]._M_p
.LVL842:
	movq	32(%rbx), %rsi	# MEM[base: __first$_M_current_202, offset: 32B], D.98154
.LVL843:
.LBE7033:
.LBE7032:
.LBB7034:
.LBB7035:
.LBB7036:
.LBB7037:
	.loc 3 195 0
	leaq	384(%rsp), %rax	#, tmp682
.LVL844:
	leaq	32(%rax), %rdi	#, tmp364
	movq	%rsi, %rdx	# D.98154, D.98154
	addq	40(%rbx), %rdx	# MEM[base: __first$_M_current_202, offset: 40B], D.98154
.LVL845:
.LEHB62:
	call	_ZNSt7__cxx1112basic_stringIcSt11char_traitsIcESaIcEE12_M_constructIPcEEvT_S7_St20forward_iterator_tag.isra.33	#
.LVL846:
.LEHE62:
	movq	392(%rsp), %rcx	# MEM[(long unsigned int *)&D.97181 + 8B], D.98157
	movq	360(%rsp), %r9	# MEM[(long unsigned int *)&D.97150 + 8B], D.98157
.LBE7037:
.LBE7036:
.LBE7035:
.LBE7034:
.LBE7031:
.LBE7030:
	.loc 5 9 0
	movl	64(%rbx), %eax	# MEM[base: __first$_M_current_202, offset: 64B], D.98159
	movq	384(%rsp), %r15	# MEM[(char * *)&D.97181], D.98154
	cmpq	%r9, %rcx	# D.98157, D.98157
	movq	%r9, %rdx	# D.98157, __len
	cmovbe	%rcx, %rdx	# D.98157,, __len
	movl	%eax, 448(%rsp)	# D.98159, D.97181.qnty
.LVL847:
.LBE7015:
.LBE7014:
.LBB7043:
.LBB6997:
.LBB6996:
.LBB6995:
.LBB6992:
.LBB6990:
	.loc 4 260 0
	testq	%rdx, %rdx	# __len
	jne	.L587	#,
.LVL848:
.L389:
.LBE6990:
.LBE6992:
.LBB6993:
.LBB6994:
	.loc 3 351 0
	subq	%r9, %rcx	# D.98157, D.98157
.LVL849:
	.loc 3 354 0
	movl	$2147483647, %r14d	#, __r
	.loc 3 353 0
	cmpq	$2147483647, %rcx	#, D.98157
	jg	.L394	#,
	.loc 3 358 0
	cmpq	$-2147483648, %rcx	#, D.98157
	movl	$-2147483648, %eax	#, tmp616
	cmovge	%ecx, %eax	# D.98157,, __r
	movl	%eax, %r14d	# __r, __r
	jmp	.L394	#
.LVL850:
	.p2align 4,,10
	.p2align 3
.L379:
.LBE6994:
.LBE6993:
.LBE6995:
.LBE6996:
.LBE6997:
.LBE7043:
.LBE7045:
.LBE7113:
.LBE6850:
.LBE6849:
.LBE6832:
.LBE6831:
.LBE7419:
.LBE7430:
.LBE7441:
.LBB7442:
.LBB7443:
.LBB7444:
	.loc 16 741 0
	movq	entry+8(%rip), %r13	# MEM[(struct info * const &)&entry + 8], D.98156
.LVL851:
.LBE7444:
.LBE7443:
.LBE7442:
.LBB7445:
.LBB7446:
.LBB7447:
	movq	entry(%rip), %rbx	# MEM[(struct info * const &)&entry], __first$_M_current
.LVL852:
.LBE7447:
.LBE7446:
.LBE7445:
.LBB7448:
.LBB6721:
	.loc 17 3766 0
	cmpq	%r13, %rbx	# D.98156, __first$_M_current
	je	.L382	#,
.LBB6702:
.LBB6699:
.LBB6678:
.LBB6679:
.LBB6680:
.LBB6681:
	.loc 3 109 0
	leaq	944(%rsp), %rax	#, tmp762
	leaq	992(%rsp), %r12	#, tmp628
.LBE6681:
.LBE6680:
.LBB6683:
.LBB6684:
.LBB6685:
.LBB6686:
	.loc 3 195 0
	leaq	32(%rax), %r14	#, tmp629
.LVL853:
	.p2align 4,,10
	.p2align 3
.L466:
.LBE6686:
.LBE6685:
.LBE6684:
.LBE6683:
.LBE6679:
.LBE6678:
.LBB6693:
.LBB6677:
.LBB6672:
.LBB6671:
	.loc 3 109 0
	movq	%rbp, 944(%rsp)	# tmp631, MEM[(struct _Alloc_hider *)&D.97966]._M_p
.LVL854:
	movq	(%rbx), %rsi	# MEM[base: _521, offset: 0B], D.98154
.LVL855:
.LBE6671:
.LBE6672:
.LBB6673:
.LBB6674:
.LBB6675:
.LBB6676:
	.loc 3 195 0
	leaq	944(%rsp), %rdi	#, tmp765
.LVL856:
	movq	%rsi, %rdx	# D.98154, D.98154
	addq	8(%rbx), %rdx	# MEM[base: _521, offset: 8B], D.98154
.LVL857:
.LEHB63:
	call	_ZNSt7__cxx1112basic_stringIcSt11char_traitsIcESaIcEE12_M_constructIPcEEvT_S7_St20forward_iterator_tag.isra.33	#
.LVL858:
.LEHE63:
.LBE6676:
.LBE6675:
.LBE6674:
.LBE6673:
.LBE6677:
.LBE6693:
.LBB6694:
.LBB6692:
.LBB6690:
.LBB6682:
	.loc 3 109 0
	movq	%r12, 976(%rsp)	# tmp628, MEM[(struct _Alloc_hider *)&D.97966 + 32B]._M_p
.LVL859:
	movq	32(%rbx), %rsi	# MEM[base: _521, offset: 32B], D.98154
.LVL860:
.LBE6682:
.LBE6690:
.LBB6691:
.LBB6689:
.LBB6688:
.LBB6687:
	.loc 3 195 0
	movq	%r14, %rdi	# tmp629,
	movq	%rsi, %rdx	# D.98154, D.98154
	addq	40(%rbx), %rdx	# MEM[base: _521, offset: 40B], D.98154
.LVL861:
.LEHB64:
	call	_ZNSt7__cxx1112basic_stringIcSt11char_traitsIcESaIcEE12_M_constructIPcEEvT_S7_St20forward_iterator_tag.isra.33	#
.LVL862:
.LEHE64:
.LBE6687:
.LBE6688:
.LBE6689:
.LBE6691:
.LBE6692:
.LBE6694:
	.loc 5 9 0
	movl	64(%rbx), %eax	# MEM[base: _521, offset: 64B], D.98159
.LBE6699:
.LBE6702:
	.loc 17 3767 0
	leaq	944(%rsp), %rdi	#, tmp767
.LVL863:
.LBB6703:
.LBB6700:
	.loc 5 9 0
	movl	%eax, 1008(%rsp)	# D.98159, D.97966.qnty
.LVL864:
.LEHB65:
.LBE6700:
.LBE6703:
	.loc 17 3767 0
	call	_Z9print_all4info	#
.LVL865:
.LEHE65:
	movq	976(%rsp), %rdi	# MEM[(char * *)&D.97966 + 32B], D.98154
.LVL866:
.LBB6704:
.LBB6705:
.LBB6706:
.LBB6707:
.LBB6708:
	.loc 3 179 0
	cmpq	%r12, %rdi	# tmp628, D.98154
	je	.L464	#,
.LVL867:
.LBB6709:
.LBB6710:
.LBB6711:
.LBB6712:
	.loc 10 110 0
	call	_ZdlPv	#
.LVL868:
.L464:
	movq	944(%rsp), %rdi	# MEM[(char * *)&D.97966], D.98154
.LVL869:
.LBE6712:
.LBE6711:
.LBE6710:
.LBE6709:
.LBE6708:
.LBE6707:
.LBE6706:
.LBE6705:
.LBB6713:
.LBB6714:
.LBB6715:
	.loc 3 179 0
	cmpq	%rbp, %rdi	# tmp631, D.98154
	je	.L465	#,
.LVL870:
.LBB6716:
.LBB6717:
.LBB6718:
.LBB6719:
	.loc 10 110 0
	call	_ZdlPv	#
.LVL871:
.L465:
	addq	$72, %rbx	#, ivtmp.447
.LVL872:
.LBE6719:
.LBE6718:
.LBE6717:
.LBE6716:
.LBE6715:
.LBE6714:
.LBE6713:
.LBE6704:
	.loc 17 3766 0
	cmpq	%rbx, %r13	# ivtmp.447, D.98156
	jne	.L466	#,
	jmp	.L382	#
.LVL873:
	.p2align 4,,10
	.p2align 3
.L398:
.LBE6721:
.LBE7448:
.LBB7449:
.LBB7431:
.LBB7420:
.LBB7378:
.LBB7373:
.LBB7350:
.LBB7345:
.LBB7114:
.LBB6914:
.LBB6911:
.LBB6894:
.LBB6893:
.LBB6892:
.LBB6890:
.LBB6891:
	.loc 3 351 0
	subq	%r9, %rcx	# D.98157, D.98157
.LVL874:
	.loc 3 354 0
	movl	$2147483647, %r14d	#, __r
	.loc 3 353 0
	cmpq	$2147483647, %rcx	#, D.98157
	jg	.L402	#,
	.loc 3 358 0
	cmpq	$-2147483648, %rcx	#, D.98157
	movl	$-2147483648, %eax	#, tmp617
	cmovge	%ecx, %eax	# D.98157,, __r
	movl	%eax, %r14d	# __r, __r
	jmp	.L402	#
.LVL875:
	.p2align 4,,10
	.p2align 3
.L406:
.LBE6891:
.LBE6890:
.LBE6892:
.LBE6893:
.LBE6894:
.LBE6911:
.LBE6914:
.LBE7114:
.LBB7115:
.LBB6979:
.LBB6976:
.LBB6959:
.LBB6958:
.LBB6957:
.LBB6955:
.LBB6956:
	.loc 3 351 0
	subq	%r9, %rcx	# D.98157, D.98157
.LVL876:
	.loc 3 354 0
	movl	$2147483647, %r14d	#, __r
	.loc 3 353 0
	cmpq	$2147483647, %rcx	#, D.98157
	jg	.L410	#,
	.loc 3 358 0
	cmpq	$-2147483648, %rcx	#, D.98157
	movl	$-2147483648, %eax	#, tmp618
	cmovge	%ecx, %eax	# D.98157,, __r
	movl	%eax, %r14d	# __r, __r
	jmp	.L410	#
.LVL877:
	.p2align 4,,10
	.p2align 3
.L414:
.LBE6956:
.LBE6955:
.LBE6957:
.LBE6958:
.LBE6959:
.LBE6976:
.LBE6979:
.LBE7115:
.LBB7116:
.LBB7111:
.LBB7109:
.LBB7092:
.LBB7091:
.LBB7090:
.LBB7088:
.LBB7089:
	.loc 3 351 0
	subq	%r9, %rcx	# D.98157, D.98157
.LVL878:
	.loc 3 354 0
	movl	$2147483647, %r15d	#, __r
	.loc 3 353 0
	cmpq	$2147483647, %rcx	#, D.98157
	jg	.L418	#,
	.loc 3 358 0
	cmpq	$-2147483648, %rcx	#, D.98157
	movl	$-2147483648, %eax	#, tmp619
	cmovge	%ecx, %eax	# D.98157,, __r
	movl	%eax, %r15d	# __r, __r
	jmp	.L418	#
.LVL879:
.L496:
.LBE7089:
.LBE7088:
.LBE7090:
.LBE7091:
.LBE7092:
.LBE7109:
.LBE7111:
.LBE7116:
	.loc 17 144 0
	movq	%rbx, 32(%rsp)	# __first$_M_current, %sfp
.LVL880:
.L397:
	movq	352(%rsp), %rdi	# MEM[(char * *)&D.97150], D.98154
.LVL881:
.LBE7345:
.LBE7350:
.LBB7351:
.LBB7352:
.LBB7353:
.LBB7354:
.LBB7355:
	.loc 3 179 0
	leaq	368(%rsp), %rax	#, tmp519
	cmpq	%rax, %rdi	# tmp519, D.98154
	je	.L448	#,
.LVL882:
.LBB7356:
.LBB7357:
.LBB7358:
.LBB7359:
	.loc 10 110 0
	call	_ZdlPv	#
.LVL883:
.L448:
	movq	288(%rsp), %rdi	# MEM[(char * *)&D.97001], D.98154
.LVL884:
.LBE7359:
.LBE7358:
.LBE7357:
.LBE7356:
.LBE7355:
.LBE7354:
.LBE7353:
.LBE7352:
.LBE7351:
.LBE7373:
.LBE7378:
.LBB7379:
.LBB7380:
.LBB7381:
.LBB7382:
.LBB7383:
	.loc 3 179 0
	leaq	304(%rsp), %rax	#, tmp521
	cmpq	%rax, %rdi	# tmp521, D.98154
	je	.L450	#,
.LVL885:
.LBB7384:
.LBB7385:
.LBB7386:
.LBB7387:
	.loc 10 110 0
	call	_ZdlPv	#
.LVL886:
.L450:
	movq	256(%rsp), %rdi	# MEM[(char * *)&D.97000], D.98154
.LVL887:
.LBE7387:
.LBE7386:
.LBE7385:
.LBE7384:
.LBE7383:
.LBE7382:
.LBE7381:
.LBE7380:
.LBE7379:
.LBB7388:
.LBB7389:
.LBB7390:
.LBB7391:
	.loc 3 179 0
	leaq	272(%rsp), %rax	#, tmp527
	cmpq	%rax, %rdi	# tmp527, D.98154
	je	.L453	#,
.LVL888:
.LBB7392:
.LBB7393:
.LBB7394:
.LBB7395:
	.loc 10 110 0
	call	_ZdlPv	#
.LVL889:
.L453:
.LBE7395:
.LBE7394:
.LBE7393:
.LBE7392:
.LBE7391:
.LBE7390:
.LBE7389:
.LBE7388:
.LBE7420:
.LBE7431:
	.loc 5 93 0
	movq	32(%rsp), %rdi	# %sfp,
.LEHB66:
	call	_Z10print_findN9__gnu_cxx17__normal_iteratorIP4infoSt6vectorIS1_SaIS1_EEEE	#
.LVL890:
.LEHE66:
	movq	192(%rsp), %rdi	# MEM[(char * *)&D.86413], D.98154
.LVL891:
.LBB7432:
.LBB6740:
.LBB6739:
.LBB6738:
	.loc 3 179 0
	leaq	208(%rsp), %rax	#, tmp535
	cmpq	%rax, %rdi	# tmp535, D.98154
	jne	.L567	#,
	jmp	.L382	#
.LVL892:
.L388:
.LBE6738:
.LBE6739:
.LBE6740:
.LBE7432:
.LBB7433:
.LBB7421:
.LBB7396:
.LBB7374:
.LBB7360:
.LBB7346:
	.loc 17 137 0
	movq	32(%rsp), %rax	# %sfp, D.98158
	subq	%rbx, %rax	# __first$_M_current, D.98158
	sarq	$3, %rax	#, tmp446
	movq	%rax, %rdx	# tmp446, tmp446
	movabsq	$-8198552921648689607, %rax	#, tmp448
	imulq	%rdx, %rax	# tmp446, D.98158
	cmpq	$2, %rax	#, D.98158
	je	.L424	#,
	cmpq	$3, %rax	#, D.98158
	je	.L425	#,
	subq	$1, %rax	#, D.98158
	jne	.L397	#,
.L426:
.LVL893:
.LBB7117:
.LBB7118:
.LBB7119:
.LBB7120:
.LBB7121:
.LBB7122:
.LBB7123:
.LBB7124:
	.loc 3 109 0
	leaq	880(%rsp), %rax	#, tmp496
.LVL894:
.LBE7124:
.LBE7123:
.LBB7126:
.LBB7127:
.LBB7128:
.LBB7129:
	.loc 3 195 0
	leaq	864(%rsp), %rdi	#, tmp745
.LVL895:
.LBE7129:
.LBE7128:
.LBE7127:
.LBE7126:
.LBB7133:
.LBB7125:
	.loc 3 109 0
	movq	%rax, 864(%rsp)	# tmp496, MEM[(struct _Alloc_hider *)&D.97853]._M_p
.LVL896:
	movq	(%rbx), %rsi	# MEM[(char * *)__first$_M_current_177], D.98154
.LVL897:
.LBE7125:
.LBE7133:
.LBB7134:
.LBB7132:
.LBB7131:
.LBB7130:
	.loc 3 195 0
	movq	%rsi, %rdx	# D.98154, D.98154
	addq	8(%rbx), %rdx	# MEM[(long unsigned int *)__first$_M_current_177 + 8B], D.98154
.LVL898:
.LEHB67:
	call	_ZNSt7__cxx1112basic_stringIcSt11char_traitsIcESaIcEE12_M_constructIPcEEvT_S7_St20forward_iterator_tag.isra.33	#
.LVL899:
.LEHE67:
.LBE7130:
.LBE7131:
.LBE7132:
.LBE7134:
.LBE7122:
.LBE7121:
.LBB7135:
.LBB7136:
.LBB7137:
.LBB7138:
	.loc 3 109 0
	leaq	912(%rsp), %rax	#, tmp501
.LVL900:
	movq	%rax, 896(%rsp)	# tmp501, MEM[(struct _Alloc_hider *)&D.97853 + 32B]._M_p
.LVL901:
	movq	32(%rbx), %rsi	# MEM[(char * *)__first$_M_current_177 + 32B], D.98154
.LVL902:
.LBE7138:
.LBE7137:
.LBB7139:
.LBB7140:
.LBB7141:
.LBB7142:
	.loc 3 195 0
	leaq	864(%rsp), %rax	#, tmp748
.LVL903:
	leaq	32(%rax), %rdi	#, tmp505
	movq	%rsi, %rdx	# D.98154, D.98154
	addq	40(%rbx), %rdx	# MEM[(long unsigned int *)__first$_M_current_177 + 40B], D.98154
.LVL904:
.LEHB68:
	call	_ZNSt7__cxx1112basic_stringIcSt11char_traitsIcESaIcEE12_M_constructIPcEEvT_S7_St20forward_iterator_tag.isra.33	#
.LVL905:
.LEHE68:
	movq	872(%rsp), %r12	# MEM[(long unsigned int *)&D.97853 + 8B], D.98157
	movq	360(%rsp), %r14	# MEM[(long unsigned int *)&D.97150 + 8B], D.98157
.LBE7142:
.LBE7141:
.LBE7140:
.LBE7139:
.LBE7136:
.LBE7135:
	.loc 5 9 0
	movl	64(%rbx), %eax	# MEM[(const struct info &)__first$_M_current_177].qnty, D.98159
	cmpq	%r14, %r12	# D.98157, D.98157
	movq	%r14, %rdx	# D.98157, __len
	cmovbe	%r12, %rdx	# D.98157,, __len
	movl	%eax, 928(%rsp)	# D.98159, D.97853.qnty
.LVL906:
.LBE7120:
.LBE7119:
.LBB7152:
.LBB7153:
.LBB7154:
.LBB7155:
.LBB7156:
.LBB7157:
	.loc 4 260 0
	testq	%rdx, %rdx	# __len
	je	.L441	#,
	.loc 4 262 0
	movq	352(%rsp), %rsi	# MEM[(char * *)&D.97150],
	movq	864(%rsp), %rdi	# MEM[(char * *)&D.97853],
	call	memcmp	#
.LVL907:
.LBE7157:
.LBE7156:
	.loc 3 2319 0
	testl	%eax, %eax	# __r
.LBB7159:
.LBB7158:
	.loc 4 262 0
	movl	%eax, %r13d	#, __r
.LBE7158:
.LBE7159:
	.loc 3 2319 0
	je	.L441	#,
.LVL908:
.L445:
	movq	896(%rsp), %rdi	# MEM[(char * *)&D.97853 + 32B], D.98154
.LVL909:
.LBE7155:
.LBE7154:
.LBE7153:
.LBE7152:
.LBB7165:
.LBB7166:
.LBB7167:
.LBB7168:
.LBB7169:
	.loc 3 179 0
	leaq	912(%rsp), %rax	#, tmp515
	cmpq	%rax, %rdi	# tmp515, D.98154
	je	.L446	#,
.LVL910:
.LBB7170:
.LBB7171:
.LBB7172:
.LBB7173:
	.loc 10 110 0
	call	_ZdlPv	#
.LVL911:
.L446:
	movq	864(%rsp), %rdi	# MEM[(char * *)&D.97853], D.98154
.LVL912:
.LBE7173:
.LBE7172:
.LBE7171:
.LBE7170:
.LBE7169:
.LBE7168:
.LBE7167:
.LBE7166:
.LBB7174:
.LBB7175:
.LBB7176:
	.loc 3 179 0
	leaq	880(%rsp), %rdx	#, tmp517
	cmpq	%rdx, %rdi	# tmp517, D.98154
	je	.L447	#,
.LVL913:
.LBB7177:
.LBB7178:
.LBB7179:
.LBB7180:
	.loc 10 110 0
	call	_ZdlPv	#
.LVL914:
.L447:
.LBE7180:
.LBE7179:
.LBE7178:
.LBE7177:
.LBE7176:
.LBE7175:
.LBE7174:
.LBE7165:
.LBE7118:
.LBE7117:
	.loc 17 148 0
	testl	%r13d, %r13d	# __r
	cmovne	32(%rsp), %rbx	# %sfp,, D.98156
.LVL915:
	movq	%rbx, 32(%rsp)	# D.98156, %sfp
.LVL916:
	jmp	.L397	#
.LVL917:
.L584:
.LBB7185:
.LBB7186:
	.loc 16 763 0
	leaq	72(%rbx), %rax	#, D.98156
	movq	%rax, 32(%rsp)	# D.98156, %sfp
.LVL918:
	jmp	.L397	#
.LVL919:
.L425:
.LBE7186:
.LBE7185:
.LBB7187:
.LBB7188:
.LBB7189:
.LBB7190:
.LBB7191:
.LBB7192:
.LBB7193:
.LBB7194:
	.loc 3 109 0
	leaq	720(%rsp), %rax	#, tmp450
.LVL920:
.LBE7194:
.LBE7193:
.LBB7196:
.LBB7197:
.LBB7198:
.LBB7199:
	.loc 3 195 0
	leaq	704(%rsp), %rdi	#, tmp725
.LVL921:
.LBE7199:
.LBE7198:
.LBE7197:
.LBE7196:
.LBB7203:
.LBB7195:
	.loc 3 109 0
	movq	%rax, 704(%rsp)	# tmp450, MEM[(struct _Alloc_hider *)&D.97629]._M_p
.LVL922:
	movq	(%rbx), %rsi	# MEM[(char * *)__first$_M_current_305], D.98154
.LVL923:
.LBE7195:
.LBE7203:
.LBB7204:
.LBB7202:
.LBB7201:
.LBB7200:
	.loc 3 195 0
	movq	%rsi, %rdx	# D.98154, D.98154
	addq	8(%rbx), %rdx	# MEM[(long unsigned int *)__first$_M_current_305 + 8B], D.98154
.LVL924:
.LEHB69:
	call	_ZNSt7__cxx1112basic_stringIcSt11char_traitsIcESaIcEE12_M_constructIPcEEvT_S7_St20forward_iterator_tag.isra.33	#
.LVL925:
.LEHE69:
.LBE7200:
.LBE7201:
.LBE7202:
.LBE7204:
.LBE7192:
.LBE7191:
.LBB7205:
.LBB7206:
.LBB7207:
.LBB7208:
	.loc 3 109 0
	leaq	752(%rsp), %rax	#, tmp455
.LVL926:
	movq	%rax, 736(%rsp)	# tmp455, MEM[(struct _Alloc_hider *)&D.97629 + 32B]._M_p
.LVL927:
	movq	32(%rbx), %rsi	# MEM[(char * *)__first$_M_current_305 + 32B], D.98154
.LVL928:
.LBE7208:
.LBE7207:
.LBB7209:
.LBB7210:
.LBB7211:
.LBB7212:
	.loc 3 195 0
	leaq	704(%rsp), %rax	#, tmp728
.LVL929:
	leaq	32(%rax), %rdi	#, tmp459
	movq	%rsi, %rdx	# D.98154, D.98154
	addq	40(%rbx), %rdx	# MEM[(long unsigned int *)__first$_M_current_305 + 40B], D.98154
.LVL930:
.LEHB70:
	call	_ZNSt7__cxx1112basic_stringIcSt11char_traitsIcESaIcEE12_M_constructIPcEEvT_S7_St20forward_iterator_tag.isra.33	#
.LVL931:
.LEHE70:
	movq	712(%rsp), %r12	# MEM[(long unsigned int *)&D.97629 + 8B], D.98157
	movq	360(%rsp), %r14	# MEM[(long unsigned int *)&D.97150 + 8B], D.98157
.LBE7212:
.LBE7211:
.LBE7210:
.LBE7209:
.LBE7206:
.LBE7205:
	.loc 5 9 0
	movl	64(%rbx), %eax	# MEM[(const struct info &)__first$_M_current_305].qnty, D.98159
	cmpq	%r14, %r12	# D.98157, D.98157
	movq	%r14, %rdx	# D.98157, __len
	cmovbe	%r12, %rdx	# D.98157,, __len
	movl	%eax, 768(%rsp)	# D.98159, D.97629.qnty
.LVL932:
.LBE7190:
.LBE7189:
.LBB7218:
.LBB7219:
.LBB7220:
.LBB7221:
.LBB7222:
.LBB7223:
	.loc 4 260 0
	testq	%rdx, %rdx	# __len
	jne	.L588	#,
.LVL933:
.L427:
.LBE7223:
.LBE7222:
.LBB7226:
.LBB7227:
	.loc 3 351 0
	subq	%r14, %r12	# D.98157, D.98157
.LVL934:
	.loc 3 354 0
	movl	$2147483647, %r13d	#, __r
	.loc 3 353 0
	cmpq	$2147483647, %r12	#, D.98157
	jg	.L431	#,
	.loc 3 358 0
	cmpq	$-2147483648, %r12	#, D.98157
	movl	$-2147483648, %r13d	#, tmp620
	cmovge	%r12d, %r13d	# D.98157,, __r
.LVL935:
.L431:
	movq	736(%rsp), %rdi	# MEM[(char * *)&D.97629 + 32B], D.98154
.LVL936:
.LBE7227:
.LBE7226:
.LBE7221:
.LBE7220:
.LBE7219:
.LBE7218:
.LBB7233:
.LBB7234:
.LBB7235:
.LBB7236:
.LBB7237:
	.loc 3 179 0
	leaq	752(%rsp), %rax	#, tmp469
	cmpq	%rax, %rdi	# tmp469, D.98154
	je	.L432	#,
.LVL937:
.LBB7238:
.LBB7239:
.LBB7240:
.LBB7241:
	.loc 10 110 0
	call	_ZdlPv	#
.LVL938:
.L432:
	movq	704(%rsp), %rdi	# MEM[(char * *)&D.97629], D.98154
.LVL939:
.LBE7241:
.LBE7240:
.LBE7239:
.LBE7238:
.LBE7237:
.LBE7236:
.LBE7235:
.LBE7234:
.LBB7242:
.LBB7243:
.LBB7244:
	.loc 3 179 0
	leaq	720(%rsp), %rdx	#, tmp471
	cmpq	%rdx, %rdi	# tmp471, D.98154
	je	.L433	#,
.LVL940:
.LBB7245:
.LBB7246:
.LBB7247:
.LBB7248:
	.loc 10 110 0
	call	_ZdlPv	#
.LVL941:
.L433:
.LBE7248:
.LBE7247:
.LBE7246:
.LBE7245:
.LBE7244:
.LBE7243:
.LBE7242:
.LBE7233:
.LBE7188:
.LBE7187:
	.loc 17 140 0
	testl	%r13d, %r13d	# __r
	je	.L496	#,
.LVL942:
.LBB7253:
.LBB7254:
	.loc 16 763 0
	addq	$72, %rbx	#, __first$_M_current
.LVL943:
.L424:
.LBE7254:
.LBE7253:
.LBB7255:
.LBB7256:
.LBB7257:
.LBB7258:
.LBB7259:
.LBB7260:
.LBB7261:
.LBB7262:
	.loc 3 109 0
	leaq	800(%rsp), %rax	#, tmp473
.LVL944:
.LBE7262:
.LBE7261:
.LBB7264:
.LBB7265:
.LBB7266:
.LBB7267:
	.loc 3 195 0
	leaq	784(%rsp), %rdi	#, tmp735
.LVL945:
.LBE7267:
.LBE7266:
.LBE7265:
.LBE7264:
.LBB7271:
.LBB7263:
	.loc 3 109 0
	movq	%rax, 784(%rsp)	# tmp473, MEM[(struct _Alloc_hider *)&D.97741]._M_p
.LVL946:
	movq	(%rbx), %rsi	# MEM[(char * *)__first$_M_current_174], D.98154
.LVL947:
.LBE7263:
.LBE7271:
.LBB7272:
.LBB7270:
.LBB7269:
.LBB7268:
	.loc 3 195 0
	movq	%rsi, %rdx	# D.98154, D.98154
	addq	8(%rbx), %rdx	# MEM[(long unsigned int *)__first$_M_current_174 + 8B], D.98154
.LVL948:
.LEHB71:
	call	_ZNSt7__cxx1112basic_stringIcSt11char_traitsIcESaIcEE12_M_constructIPcEEvT_S7_St20forward_iterator_tag.isra.33	#
.LVL949:
.LEHE71:
.LBE7268:
.LBE7269:
.LBE7270:
.LBE7272:
.LBE7260:
.LBE7259:
.LBB7273:
.LBB7274:
.LBB7275:
.LBB7276:
	.loc 3 109 0
	leaq	832(%rsp), %rax	#, tmp478
.LVL950:
	movq	%rax, 816(%rsp)	# tmp478, MEM[(struct _Alloc_hider *)&D.97741 + 32B]._M_p
.LVL951:
	movq	32(%rbx), %rsi	# MEM[(char * *)__first$_M_current_174 + 32B], D.98154
.LVL952:
.LBE7276:
.LBE7275:
.LBB7277:
.LBB7278:
.LBB7279:
.LBB7280:
	.loc 3 195 0
	leaq	784(%rsp), %rax	#, tmp738
.LVL953:
	leaq	32(%rax), %rdi	#, tmp482
	movq	%rsi, %rdx	# D.98154, D.98154
	addq	40(%rbx), %rdx	# MEM[(long unsigned int *)__first$_M_current_174 + 40B], D.98154
.LVL954:
.LEHB72:
	call	_ZNSt7__cxx1112basic_stringIcSt11char_traitsIcESaIcEE12_M_constructIPcEEvT_S7_St20forward_iterator_tag.isra.33	#
.LVL955:
.LEHE72:
	movq	792(%rsp), %r13	# MEM[(long unsigned int *)&D.97741 + 8B], D.98157
	movq	360(%rsp), %r14	# MEM[(long unsigned int *)&D.97150 + 8B], D.98157
.LBE7280:
.LBE7279:
.LBE7278:
.LBE7277:
.LBE7274:
.LBE7273:
	.loc 5 9 0
	movl	64(%rbx), %eax	# MEM[(const struct info &)__first$_M_current_174].qnty, D.98159
	cmpq	%r14, %r13	# D.98157, D.98157
	movq	%r14, %rdx	# D.98157, __len
	cmovbe	%r13, %rdx	# D.98157,, __len
	movl	%eax, 848(%rsp)	# D.98159, D.97741.qnty
.LVL956:
.LBE7258:
.LBE7257:
.LBB7286:
.LBB7287:
.LBB7288:
.LBB7289:
.LBB7290:
.LBB7291:
	.loc 4 260 0
	testq	%rdx, %rdx	# __len
	jne	.L589	#,
.LVL957:
.L434:
.LBE7291:
.LBE7290:
.LBB7294:
.LBB7295:
	.loc 3 351 0
	subq	%r14, %r13	# D.98157, D.98157
.LVL958:
	.loc 3 354 0
	movl	$2147483647, %r12d	#, __r
	.loc 3 353 0
	cmpq	$2147483647, %r13	#, D.98157
	jle	.L590	#,
.LVL959:
.L438:
	movq	816(%rsp), %rdi	# MEM[(char * *)&D.97741 + 32B], D.98154
.LVL960:
.LBE7295:
.LBE7294:
.LBE7289:
.LBE7288:
.LBE7287:
.LBE7286:
.LBB7306:
.LBB7307:
.LBB7308:
.LBB7309:
.LBB7310:
	.loc 3 179 0
	leaq	832(%rsp), %rax	#, tmp492
	cmpq	%rax, %rdi	# tmp492, D.98154
	je	.L439	#,
.LVL961:
.LBB7311:
.LBB7312:
.LBB7313:
.LBB7314:
	.loc 10 110 0
	call	_ZdlPv	#
.LVL962:
.L439:
	movq	784(%rsp), %rdi	# MEM[(char * *)&D.97741], D.98154
.LVL963:
.LBE7314:
.LBE7313:
.LBE7312:
.LBE7311:
.LBE7310:
.LBE7309:
.LBE7308:
.LBE7307:
.LBB7315:
.LBB7316:
.LBB7317:
	.loc 3 179 0
	leaq	800(%rsp), %rax	#, tmp494
	cmpq	%rax, %rdi	# tmp494, D.98154
	je	.L440	#,
.LVL964:
.LBB7318:
.LBB7319:
.LBB7320:
.LBB7321:
	.loc 10 110 0
	call	_ZdlPv	#
.LVL965:
.L440:
.LBE7321:
.LBE7320:
.LBE7319:
.LBE7318:
.LBE7317:
.LBE7316:
.LBE7315:
.LBE7306:
.LBE7256:
.LBE7255:
	.loc 17 144 0
	testl	%r12d, %r12d	# __r
	je	.L496	#,
.LVL966:
.LBB7328:
.LBB7329:
	.loc 16 763 0
	addq	$72, %rbx	#, __first$_M_current
.LVL967:
	jmp	.L426	#
.LVL968:
.L441:
.LBE7329:
.LBE7328:
.LBB7330:
.LBB7183:
.LBB7181:
.LBB7164:
.LBB7163:
.LBB7162:
.LBB7160:
.LBB7161:
	.loc 3 351 0
	subq	%r14, %r12	# D.98157, D.98157
.LVL969:
	.loc 3 354 0
	movl	$2147483647, %r13d	#, __r
	.loc 3 353 0
	cmpq	$2147483647, %r12	#, D.98157
	jg	.L445	#,
	.loc 3 358 0
	cmpq	$-2147483648, %r12	#, D.98157
	movl	$-2147483648, %r13d	#, tmp622
	cmovge	%r12d, %r13d	# D.98157,, __r
	jmp	.L445	#
.LVL970:
.L585:
.LBE7161:
.LBE7160:
.LBE7162:
.LBE7163:
.LBE7164:
.LBE7181:
.LBE7183:
.LBE7330:
.LBB7331:
.LBB7332:
	.loc 16 763 0
	leaq	144(%rbx), %rax	#, D.98156
	movq	%rax, 32(%rsp)	# D.98156, %sfp
.LVL971:
	jmp	.L397	#
.LVL972:
.L586:
.LBE7332:
.LBE7331:
.LBB7333:
.LBB7334:
	leaq	216(%rbx), %rax	#, D.98156
	movq	%rax, 32(%rsp)	# D.98156, %sfp
.LVL973:
	jmp	.L397	#
.LVL974:
.L589:
.LBE7334:
.LBE7333:
.LBB7335:
.LBB7325:
.LBB7322:
.LBB7304:
.LBB7302:
.LBB7300:
.LBB7297:
.LBB7292:
	.loc 4 262 0
	movq	352(%rsp), %rsi	# MEM[(char * *)&D.97150],
	movq	784(%rsp), %rdi	# MEM[(char * *)&D.97741],
	call	memcmp	#
.LVL975:
.LBE7292:
.LBE7297:
	.loc 3 2319 0
	testl	%eax, %eax	# __r
.LBB7298:
.LBB7293:
	.loc 4 262 0
	movl	%eax, %r12d	#, __r
.LBE7293:
.LBE7298:
	.loc 3 2319 0
	jne	.L438	#,
	jmp	.L434	#
.LVL976:
.L588:
.LBE7300:
.LBE7302:
.LBE7304:
.LBE7322:
.LBE7325:
.LBE7335:
.LBB7336:
.LBB7251:
.LBB7249:
.LBB7232:
.LBB7231:
.LBB7230:
.LBB7228:
.LBB7224:
	.loc 4 262 0
	movq	352(%rsp), %rsi	# MEM[(char * *)&D.97150],
	movq	704(%rsp), %rdi	# MEM[(char * *)&D.97629],
	call	memcmp	#
.LVL977:
.LBE7224:
.LBE7228:
	.loc 3 2319 0
	testl	%eax, %eax	# __r
.LBB7229:
.LBB7225:
	.loc 4 262 0
	movl	%eax, %r13d	#, __r
.LBE7225:
.LBE7229:
	.loc 3 2319 0
	jne	.L431	#,
	jmp	.L427	#
.LVL978:
.L590:
.LBE7230:
.LBE7231:
.LBE7232:
.LBE7249:
.LBE7251:
.LBE7336:
.LBB7337:
.LBB7326:
.LBB7323:
.LBB7305:
.LBB7303:
.LBB7301:
.LBB7299:
.LBB7296:
	.loc 3 358 0
	cmpq	$-2147483648, %r13	#, D.98157
	movl	$-2147483648, %r12d	#, tmp621
	cmovge	%r13d, %r12d	# D.98157,, __r
	jmp	.L438	#
.LVL979:
.L515:
	movq	864(%rsp), %rdi	# MEM[(char * *)&D.97853], D.98154
	movq	%rax, %rbx	#, tmp508
.LVL980:
.LBE7296:
.LBE7299:
.LBE7301:
.LBE7303:
.LBE7305:
.LBE7323:
.LBE7326:
.LBE7337:
.LBB7338:
.LBB7184:
.LBB7182:
.LBB7151:
.LBB7143:
.LBB7144:
.LBB7145:
.LBB7146:
	.loc 3 179 0
	leaq	880(%rsp), %rax	#, tmp507
	cmpq	%rax, %rdi	# tmp507, D.98154
	je	.L393	#,
.LVL981:
.L561:
.LBB7147:
.LBB7148:
.LBB7149:
.LBB7150:
	.loc 10 110 0
	call	_ZdlPv	#
.LVL982:
.L393:
	movq	352(%rsp), %rdi	# MEM[(char * *)&D.97150], D.98154
.LVL983:
.LBE7150:
.LBE7149:
.LBE7148:
.LBE7147:
.LBE7146:
.LBE7145:
.LBE7144:
.LBE7143:
.LBE7151:
.LBE7182:
.LBE7184:
.LBE7338:
.LBE7346:
.LBE7360:
.LBB7361:
.LBB7362:
.LBB7363:
.LBB7364:
.LBB7365:
	.loc 3 179 0
	leaq	368(%rsp), %rdx	#, tmp523
	cmpq	%rdx, %rdi	# tmp523, D.98154
	je	.L452	#,
.LVL984:
.LBB7366:
.LBB7367:
.LBB7368:
.LBB7369:
	.loc 10 110 0
	call	_ZdlPv	#
.LVL985:
.L452:
	movq	288(%rsp), %rdi	# MEM[(char * *)&D.97001], D.98154
.LVL986:
.LBE7369:
.LBE7368:
.LBE7367:
.LBE7366:
.LBE7365:
.LBE7364:
.LBE7363:
.LBE7362:
.LBE7361:
.LBE7374:
.LBE7396:
.LBB7397:
.LBB7398:
.LBB7399:
.LBB7400:
.LBB7401:
	.loc 3 179 0
	leaq	304(%rsp), %rdx	#, tmp529
	cmpq	%rdx, %rdi	# tmp529, D.98154
	je	.L387	#,
.LVL987:
.L566:
.LBB7402:
.LBB7403:
.LBB7404:
.LBB7405:
	.loc 10 110 0
	call	_ZdlPv	#
.LVL988:
.L387:
	movq	256(%rsp), %rdi	# MEM[(char * *)&D.97000], D.98154
.LVL989:
.LBE7405:
.LBE7404:
.LBE7403:
.LBE7402:
.LBE7401:
.LBE7400:
.LBE7399:
.LBE7398:
.LBE7397:
.LBB7406:
.LBB7407:
.LBB7408:
.LBB7409:
	.loc 3 179 0
	leaq	272(%rsp), %rdx	#, tmp531
	cmpq	%rdx, %rdi	# tmp531, D.98154
	je	.L457	#,
.LVL990:
.LBB7410:
.LBB7411:
.LBB7412:
.LBB7413:
	.loc 10 110 0
	call	_ZdlPv	#
.LVL991:
.L457:
	movq	192(%rsp), %rdi	# MEM[(char * *)&D.86413], D.98154
.LVL992:
.LBE7413:
.LBE7412:
.LBE7411:
.LBE7410:
.LBE7409:
.LBE7408:
.LBE7407:
.LBE7406:
.LBE7421:
.LBE7433:
.LBB7434:
.LBB7435:
.LBB7436:
.LBB7437:
	.loc 3 179 0 discriminator 4
	leaq	208(%rsp), %rdx	#, tmp586
	cmpq	%rdx, %rdi	# tmp586, D.98154
	je	.L463	#,
.LVL993:
.L568:
.LBE7437:
.LBE7436:
.LBE7435:
.LBE7434:
.LBE7449:
.LBE7459:
.LBE7466:
.LBE7506:
.LBB7507:
.LBB7508:
.LBB7509:
.LBB7510:
.LBB7511:
.LBB7512:
.LBB7513:
	.loc 10 110 0
	call	_ZdlPv	#
.LVL994:
.L463:
	movq	96(%rsp), %rdi	# MEM[(char * *)&descriptor], D.98154
.LVL995:
.LBE7513:
.LBE7512:
.LBE7511:
.LBE7510:
.LBE7509:
.LBE7508:
.LBE7507:
.LBB7516:
.LBB7517:
.LBB7518:
.LBB7519:
	.loc 3 179 0
	leaq	112(%rsp), %rdx	#, tmp592
	cmpq	%rdx, %rdi	# tmp592, D.98154
	je	.L479	#,
.LVL996:
.LBB7520:
.LBB7521:
.LBB7522:
.LBB7523:
	.loc 10 110 0
	call	_ZdlPv	#
.LVL997:
.L479:
	movq	64(%rsp), %rdi	# MEM[(char * *)&file], D.98154
.LVL998:
.LBE7523:
.LBE7522:
.LBE7521:
.LBE7520:
.LBE7519:
.LBE7518:
.LBE7517:
.LBE7516:
.LBB7524:
.LBB7525:
.LBB7526:
	.loc 3 179 0
	leaq	80(%rsp), %rdx	#, tmp596
	cmpq	%rdx, %rdi	# tmp596, D.98154
	je	.L480	#,
.LVL999:
.LBB7527:
.LBB7528:
.LBB7529:
.LBB7530:
	.loc 10 110 0
	call	_ZdlPv	#
.LVL1000:
.L480:
	movq	%rbx, %rdi	# tmp552,
.LEHB73:
	call	_Unwind_Resume	#
.LVL1001:
.LEHE73:
.L514:
	movq	784(%rsp), %rdi	# MEM[(char * *)&D.97741], D.98154
	movq	%rax, %rbx	#, tmp485
.LVL1002:
.LBE7530:
.LBE7529:
.LBE7528:
.LBE7527:
.LBE7526:
.LBE7525:
.LBE7524:
.LBB7531:
.LBB7467:
.LBB7460:
.LBB7450:
.LBB7438:
.LBB7422:
.LBB7414:
.LBB7375:
.LBB7370:
.LBB7347:
.LBB7339:
.LBB7327:
.LBB7324:
.LBB7285:
.LBB7281:
.LBB7282:
.LBB7283:
.LBB7284:
	.loc 3 179 0
	leaq	800(%rsp), %rax	#, tmp484
	cmpq	%rax, %rdi	# tmp484, D.98154
	jne	.L561	#,
	jmp	.L393	#
.LVL1003:
.L513:
	movq	704(%rsp), %rdi	# MEM[(char * *)&D.97629], D.98154
	movq	%rax, %rbx	#, tmp462
.LVL1004:
.LBE7284:
.LBE7283:
.LBE7282:
.LBE7281:
.LBE7285:
.LBE7324:
.LBE7327:
.LBE7339:
.LBB7340:
.LBB7252:
.LBB7250:
.LBB7217:
.LBB7213:
.LBB7214:
.LBB7215:
.LBB7216:
	leaq	720(%rsp), %rax	#, tmp461
	cmpq	%rax, %rdi	# tmp461, D.98154
	jne	.L561	#,
	jmp	.L393	#
.LVL1005:
.L507:
	movq	320(%rsp), %rdi	# MEM[(char * *)&D.97086], D.98154
.LBE7216:
.LBE7215:
.LBE7214:
.LBE7213:
.LBE7217:
.LBE7250:
.LBE7252:
.LBE7340:
.LBE7347:
.LBE7370:
.LBE7375:
.LBE7414:
.LBB7415:
.LBB6830:
.LBB6826:
.LBB6827:
.LBB6828:
.LBB6829:
	leaq	336(%rsp), %rdx	#, tmp340
	movq	%rax, %rbx	#, tmp342
.LVL1006:
	cmpq	%rdx, %rdi	# tmp340, D.98154
	jne	.L566	#,
	jmp	.L387	#
.LVL1007:
.L505:
	movq	%rax, %rbx	#, tmp341
	jmp	.L387	#
.LVL1008:
.L503:
	movq	%rax, %rbx	#, tmp532
	jmp	.L457	#
.LVL1009:
.L516:
.LBE6829:
.LBE6828:
.LBE6827:
.LBE6826:
.LBE6830:
.LBE7415:
.LBE7422:
.LBE7438:
.LBE7450:
.LBB7451:
.LBB6722:
	.loc 17 3767 0
	leaq	944(%rsp), %rdi	#, tmp769
	movq	%rax, %rbx	#, tmp561
.LVL1010:
	call	_ZN4infoD1Ev	#
.LVL1011:
	jmp	.L463	#
.LVL1012:
.L506:
	movq	%rax, %rbx	#, tmp524
	jmp	.L452	#
.LVL1013:
.L510:
	movq	464(%rsp), %rdi	# MEM[(char * *)&D.97293], D.98154
	movq	%rax, %rbx	#, tmp391
.LVL1014:
.LBE6722:
.LBE7451:
.LBB7452:
.LBB7439:
.LBB7423:
.LBB7416:
.LBB7376:
.LBB7371:
.LBB7348:
.LBB7341:
.LBB6915:
.LBB6912:
.LBB6880:
.LBB6875:
.LBB6876:
.LBB6877:
.LBB6878:
	.loc 3 179 0
	leaq	480(%rsp), %rax	#, tmp390
	cmpq	%rax, %rdi	# tmp390, D.98154
	jne	.L561	#,
	jmp	.L393	#
.LVL1015:
.L582:
.LBE6878:
.LBE6877:
.LBE6876:
.LBE6875:
.LBE6880:
.LBE6912:
.LBE6915:
.LBE7341:
.LBE7348:
.LBE7371:
.LBE7376:
.LBE7416:
.LBE7423:
.LBE7439:
.LBE7452:
.LBE7460:
.LBE7467:
.LBE7531:
	.loc 5 108 0
	call	__stack_chk_fail	#
.LVL1016:
.L504:
	movq	224(%rsp), %rdi	# MEM[(char * *)&D.86466], D.98154
.LBB7532:
.LBB7515:
.LBB7514:
	.loc 3 179 0
	leaq	240(%rsp), %rdx	#, tmp588
	movq	%rax, %rbx	#, tmp589
.LVL1017:
	cmpq	%rdx, %rdi	# tmp588, D.98154
	jne	.L568	#,
	jmp	.L463	#
.LVL1018:
.L517:
	movq	944(%rsp), %rdi	# MEM[(char * *)&D.97966], D.98154
	movq	%rax, %rbx	#, tmp553
.LVL1019:
.LBE7514:
.LBE7515:
.LBE7532:
.LBB7533:
.LBB7468:
.LBB7461:
.LBB7453:
.LBB6723:
.LBB6720:
.LBB6701:
.LBB6695:
.LBB6696:
.LBB6697:
.LBB6698:
	leaq	960(%rsp), %rax	#, tmp551
	cmpq	%rax, %rdi	# tmp551, D.98154
	jne	.L568	#,
	jmp	.L463	#
.LVL1020:
.L502:
	movq	160(%rsp), %rdi	# MEM[(char * *)&D.86391], D.98154
.LBE6698:
.LBE6697:
.LBE6696:
.LBE6695:
.LBE6701:
.LBE6720:
.LBE6723:
.LBE7453:
.LBB7454:
.LBB7455:
.LBB7456:
	leaq	176(%rsp), %rdx	#, tmp582
	movq	%rax, %rbx	#, tmp583
.LVL1021:
	cmpq	%rdx, %rdi	# tmp582, D.98154
	jne	.L568	#,
	jmp	.L463	#
.LVL1022:
.L501:
	movq	128(%rsp), %rdi	# MEM[(char * *)&D.86386], D.98154
.LBE7456:
.LBE7455:
.LBE7454:
.LBE7461:
.LBE7468:
.LBE7533:
.LBB7534:
.LBB7535:
.LBB7536:
	leaq	144(%rsp), %rdx	#, tmp578
	movq	%rax, %rbx	#, tmp579
.LVL1023:
	cmpq	%rdx, %rdi	# tmp578, D.98154
	jne	.L568	#,
	jmp	.L463	#
.LVL1024:
.L500:
	movq	%rax, %rbx	#, tmp552
	jmp	.L463	#
.LVL1025:
.L509:
	movq	384(%rsp), %rdi	# MEM[(char * *)&D.97181], D.98154
	movq	%rax, %rbx	#, tmp368
.LVL1026:
.LBE7536:
.LBE7535:
.LBE7534:
.LBB7537:
.LBB7469:
.LBB7462:
.LBB7457:
.LBB7440:
.LBB7424:
.LBB7417:
.LBB7377:
.LBB7372:
.LBB7349:
.LBB7342:
.LBB7046:
.LBB7044:
.LBB7042:
.LBB7038:
.LBB7039:
.LBB7040:
.LBB7041:
	leaq	400(%rsp), %rax	#, tmp366
	cmpq	%rax, %rdi	# tmp366, D.98154
	jne	.L561	#,
	jmp	.L393	#
.LVL1027:
.L508:
	movq	%rax, %rbx	#, tmp367
	jmp	.L393	#
.LVL1028:
.L511:
	movq	544(%rsp), %rdi	# MEM[(char * *)&D.97405], D.98154
	movq	%rax, %rbx	#, tmp413
.LVL1029:
.LBE7041:
.LBE7040:
.LBE7039:
.LBE7038:
.LBE7042:
.LBE7044:
.LBE7046:
.LBE7342:
.LBB7343:
.LBB6980:
.LBB6977:
.LBB6945:
.LBB6940:
.LBB6941:
.LBB6942:
.LBB6943:
	leaq	560(%rsp), %rax	#, tmp412
	cmpq	%rax, %rdi	# tmp412, D.98154
	jne	.L561	#,
	jmp	.L393	#
.LVL1030:
.L512:
	movq	624(%rsp), %rdi	# MEM[(char * *)&D.97517], D.98154
	movq	%rax, %rbx	#, tmp435
.LVL1031:
.LBE6943:
.LBE6942:
.LBE6941:
.LBE6940:
.LBE6945:
.LBE6977:
.LBE6980:
.LBE7343:
.LBB7344:
.LBB7112:
.LBB7110:
.LBB7079:
.LBB7075:
.LBB7076:
.LBB7077:
.LBB7078:
	leaq	640(%rsp), %rax	#, tmp434
	cmpq	%rax, %rdi	# tmp434, D.98154
	jne	.L561	#,
	jmp	.L393	#
.LBE7078:
.LBE7077:
.LBE7076:
.LBE7075:
.LBE7079:
.LBE7110:
.LBE7112:
.LBE7344:
.LBE7349:
.LBE7372:
.LBE7377:
.LBE7417:
.LBE7424:
.LBE7440:
.LBE7457:
.LBE7462:
.LBE7469:
.LBE7537:
	.cfi_endproc
.LFE8045:
	.section	.gcc_except_table
.LLSDA8045:
	.byte	0xff
	.byte	0xff
	.byte	0x1
	.uleb128 .LLSDACSE8045-.LLSDACSB8045
.LLSDACSB8045:
	.uleb128 .LEHB44-.LFB8045
	.uleb128 .LEHE44-.LEHB44
	.uleb128 .L500-.LFB8045
	.uleb128 0
	.uleb128 .LEHB45-.LFB8045
	.uleb128 .LEHE45-.LEHB45
	.uleb128 .L501-.LFB8045
	.uleb128 0
	.uleb128 .LEHB46-.LFB8045
	.uleb128 .LEHE46-.LEHB46
	.uleb128 .L500-.LFB8045
	.uleb128 0
	.uleb128 .LEHB47-.LFB8045
	.uleb128 .LEHE47-.LEHB47
	.uleb128 .L504-.LFB8045
	.uleb128 0
	.uleb128 .LEHB48-.LFB8045
	.uleb128 .LEHE48-.LEHB48
	.uleb128 .L500-.LFB8045
	.uleb128 0
	.uleb128 .LEHB49-.LFB8045
	.uleb128 .LEHE49-.LEHB49
	.uleb128 .L502-.LFB8045
	.uleb128 0
	.uleb128 .LEHB50-.LFB8045
	.uleb128 .LEHE50-.LEHB50
	.uleb128 .L500-.LFB8045
	.uleb128 0
	.uleb128 .LEHB51-.LFB8045
	.uleb128 .LEHE51-.LEHB51
	.uleb128 .L503-.LFB8045
	.uleb128 0
	.uleb128 .LEHB52-.LFB8045
	.uleb128 .LEHE52-.LEHB52
	.uleb128 .L505-.LFB8045
	.uleb128 0
	.uleb128 .LEHB53-.LFB8045
	.uleb128 .LEHE53-.LEHB53
	.uleb128 .L507-.LFB8045
	.uleb128 0
	.uleb128 .LEHB54-.LFB8045
	.uleb128 .LEHE54-.LEHB54
	.uleb128 .L506-.LFB8045
	.uleb128 0
	.uleb128 .LEHB55-.LFB8045
	.uleb128 .LEHE55-.LEHB55
	.uleb128 .L508-.LFB8045
	.uleb128 0
	.uleb128 .LEHB56-.LFB8045
	.uleb128 .LEHE56-.LEHB56
	.uleb128 .L510-.LFB8045
	.uleb128 0
	.uleb128 .LEHB57-.LFB8045
	.uleb128 .LEHE57-.LEHB57
	.uleb128 .L508-.LFB8045
	.uleb128 0
	.uleb128 .LEHB58-.LFB8045
	.uleb128 .LEHE58-.LEHB58
	.uleb128 .L511-.LFB8045
	.uleb128 0
	.uleb128 .LEHB59-.LFB8045
	.uleb128 .LEHE59-.LEHB59
	.uleb128 .L508-.LFB8045
	.uleb128 0
	.uleb128 .LEHB60-.LFB8045
	.uleb128 .LEHE60-.LEHB60
	.uleb128 .L512-.LFB8045
	.uleb128 0
	.uleb128 .LEHB61-.LFB8045
	.uleb128 .LEHE61-.LEHB61
	.uleb128 .L508-.LFB8045
	.uleb128 0
	.uleb128 .LEHB62-.LFB8045
	.uleb128 .LEHE62-.LEHB62
	.uleb128 .L509-.LFB8045
	.uleb128 0
	.uleb128 .LEHB63-.LFB8045
	.uleb128 .LEHE63-.LEHB63
	.uleb128 .L500-.LFB8045
	.uleb128 0
	.uleb128 .LEHB64-.LFB8045
	.uleb128 .LEHE64-.LEHB64
	.uleb128 .L517-.LFB8045
	.uleb128 0
	.uleb128 .LEHB65-.LFB8045
	.uleb128 .LEHE65-.LEHB65
	.uleb128 .L516-.LFB8045
	.uleb128 0
	.uleb128 .LEHB66-.LFB8045
	.uleb128 .LEHE66-.LEHB66
	.uleb128 .L503-.LFB8045
	.uleb128 0
	.uleb128 .LEHB67-.LFB8045
	.uleb128 .LEHE67-.LEHB67
	.uleb128 .L508-.LFB8045
	.uleb128 0
	.uleb128 .LEHB68-.LFB8045
	.uleb128 .LEHE68-.LEHB68
	.uleb128 .L515-.LFB8045
	.uleb128 0
	.uleb128 .LEHB69-.LFB8045
	.uleb128 .LEHE69-.LEHB69
	.uleb128 .L508-.LFB8045
	.uleb128 0
	.uleb128 .LEHB70-.LFB8045
	.uleb128 .LEHE70-.LEHB70
	.uleb128 .L513-.LFB8045
	.uleb128 0
	.uleb128 .LEHB71-.LFB8045
	.uleb128 .LEHE71-.LEHB71
	.uleb128 .L508-.LFB8045
	.uleb128 0
	.uleb128 .LEHB72-.LFB8045
	.uleb128 .LEHE72-.LEHB72
	.uleb128 .L514-.LFB8045
	.uleb128 0
	.uleb128 .LEHB73-.LFB8045
	.uleb128 .LEHE73-.LEHB73
	.uleb128 0
	.uleb128 0
.LLSDACSE8045:
	.section	.text.startup
	.size	main, .-main
	.section	.text.unlikely
.LCOLDE20:
	.section	.text.startup
.LHOTE20:
	.section	.text.unlikely
.LCOLDB21:
	.section	.text.startup
.LHOTB21:
	.p2align 4,,15
	.type	_GLOBAL__sub_I_entry, @function
_GLOBAL__sub_I_entry:
.LFB8656:
	.loc 5 108 0
	.cfi_startproc
.LVL1032:
	subq	$8, %rsp	#,
	.cfi_def_cfa_offset 16
.LBB7546:
.LBB7547:
	.file 19 "/usr/include/c++/5/iostream"
	.loc 19 74 0
	movl	$_ZStL8__ioinit, %edi	#,
	call	_ZNSt8ios_base4InitC1Ev	#
.LVL1033:
	movl	$__dso_handle, %edx	#,
	movl	$_ZStL8__ioinit, %esi	#,
	movl	$_ZNSt8ios_base4InitD1Ev, %edi	#,
	call	__cxa_atexit	#
.LVL1034:
.LBB7548:
.LBB7549:
.LBB7550:
.LBB7551:
	.loc 8 87 0
	movq	$0, entry(%rip)	#, MEM[(struct _Vector_impl *)&entry]._M_start
	movq	$0, entry+8(%rip)	#, MEM[(struct _Vector_impl *)&entry]._M_finish
.LBE7551:
.LBE7550:
.LBE7549:
.LBE7548:
	.loc 5 15 0
	movl	$__dso_handle, %edx	#,
.LBB7555:
.LBB7554:
.LBB7553:
.LBB7552:
	.loc 8 87 0
	movq	$0, entry+16(%rip)	#, MEM[(struct _Vector_impl *)&entry]._M_end_of_storage
.LVL1035:
.LBE7552:
.LBE7553:
.LBE7554:
.LBE7555:
	.loc 5 15 0
	movl	$entry, %esi	#,
	movl	$_ZNSt6vectorI4infoSaIS0_EED1Ev, %edi	#,
.LBE7547:
.LBE7546:
	.loc 5 108 0
	addq	$8, %rsp	#,
	.cfi_def_cfa_offset 8
.LBB7557:
.LBB7556:
	.loc 5 15 0
	jmp	__cxa_atexit	#
.LVL1036:
.LBE7556:
.LBE7557:
	.cfi_endproc
.LFE8656:
	.size	_GLOBAL__sub_I_entry, .-_GLOBAL__sub_I_entry
	.section	.text.unlikely
.LCOLDE21:
	.section	.text.startup
.LHOTE21:
	.section	.init_array,"aw"
	.align 8
	.quad	_GLOBAL__sub_I_entry
	.globl	entry
	.bss
	.align 16
	.type	entry, @object
	.size	entry, 24
entry:
	.zero	24
	.local	_ZStL8__ioinit
	.comm	_ZStL8__ioinit,1,1
	.text
.Letext0:
	.section	.text.unlikely._ZNKSt5ctypeIcE8do_widenEc,"axG",@progbits,_ZNKSt5ctypeIcE8do_widenEc,comdat
.Letext_cold0:
	.file 20 "/usr/include/c++/5/bits/stringfwd.h"
	.file 21 "/usr/include/c++/5/cwchar"
	.file 22 "/usr/include/x86_64-linux-gnu/c++/5/bits/c++config.h"
	.file 23 "/usr/include/c++/5/bits/exception_ptr.h"
	.file 24 "/usr/include/c++/5/bits/cpp_type_traits.h"
	.file 25 "/usr/include/c++/5/type_traits"
	.file 26 "/usr/include/c++/5/bits/stl_pair.h"
	.file 27 "/usr/include/c++/5/bits/stl_iterator_base_types.h"
	.file 28 "/usr/include/c++/5/cstdint"
	.file 29 "/usr/include/c++/5/clocale"
	.file 30 "/usr/include/c++/5/new"
	.file 31 "/usr/include/c++/5/bits/allocator.h"
	.file 32 "/usr/include/c++/5/cstdlib"
	.file 33 "/usr/include/c++/5/cstdio"
	.file 34 "/usr/include/c++/5/bits/alloc_traits.h"
	.file 35 "/usr/include/c++/5/initializer_list"
	.file 36 "/usr/include/c++/5/debug/debug.h"
	.file 37 "/usr/include/c++/5/system_error"
	.file 38 "/usr/include/c++/5/bits/ios_base.h"
	.file 39 "/usr/include/c++/5/cwctype"
	.file 40 "/usr/include/c++/5/bits/ostream.tcc"
	.file 41 "/usr/include/c++/5/bits/postypes.h"
	.file 42 "/usr/include/c++/5/bits/algorithmfwd.h"
	.file 43 "/usr/include/c++/5/cmath"
	.file 44 "/usr/include/c++/5/bits/uniform_int_dist.h"
	.file 45 "/usr/include/c++/5/bits/random.h"
	.file 46 "/usr/include/c++/5/bits/ptr_traits.h"
	.file 47 "/usr/include/c++/5/bits/basic_ios.tcc"
	.file 48 "/usr/include/c++/5/bits/fstream.tcc"
	.file 49 "/usr/include/c++/5/bits/move.h"
	.file 50 "/usr/include/c++/5/bits/stl_iterator_base_funcs.h"
	.file 51 "/usr/include/c++/5/iosfwd"
	.file 52 "/usr/include/c++/5/bits/functexcept.h"
	.file 53 "/usr/include/c++/5/bits/ostream_insert.h"
	.file 54 "/usr/include/c++/5/bits/istream.tcc"
	.file 55 "/usr/include/c++/5/bits/predefined_ops.h"
	.file 56 "/usr/include/c++/5/ext/numeric_traits.h"
	.file 57 "/usr/include/c++/5/ext/alloc_traits.h"
	.file 58 "/usr/include/c++/5/ext/type_traits.h"
	.file 59 "/usr/include/stdio.h"
	.file 60 "/usr/include/libio.h"
	.file 61 "<built-in>"
	.file 62 "/usr/lib/gcc/x86_64-linux-gnu/5/include/stddef.h"
	.file 63 "/usr/include/wchar.h"
	.file 64 "/usr/include/x86_64-linux-gnu/bits/wchar2.h"
	.file 65 "/usr/include/time.h"
	.file 66 "/usr/include/stdint.h"
	.file 67 "/usr/include/locale.h"
	.file 68 "/usr/include/x86_64-linux-gnu/bits/types.h"
	.file 69 "/usr/include/x86_64-linux-gnu/c++/5/bits/atomic_word.h"
	.file 70 "/usr/include/stdlib.h"
	.file 71 "/usr/include/x86_64-linux-gnu/bits/stdlib-float.h"
	.file 72 "/usr/include/x86_64-linux-gnu/bits/stdlib-bsearch.h"
	.file 73 "/usr/include/x86_64-linux-gnu/bits/stdlib.h"
	.file 74 "/usr/include/_G_config.h"
	.file 75 "/usr/include/x86_64-linux-gnu/bits/stdio2.h"
	.file 76 "/usr/include/x86_64-linux-gnu/bits/stdio.h"
	.file 77 "/usr/include/wctype.h"
	.file 78 "/usr/include/x86_64-linux-gnu/bits/mathdef.h"